CCS PCH C Compiler, Version 5.070, 5967               05-kwi-19 10:08

               Filename:   E:\Elektronika_projekty\Car_Radio\testowy\software - EMULACJA RADIO\mcu_main.lst

               ROM used:   9638 bytes (29%)
                           Largest free fragment is 23130
               RAM used:   102 (7%) at main() level
                           147 (10%) worst case
               Stack used: 9 locations (8 in main + 1 for interrupts)
               Stack size: 31

*
0000:  GOTO   1B04
*
0008:  MOVWF  04
000A:  MOVFF  FD8,05
000E:  MOVFF  FE0,06
0012:  MOVLB  0
0014:  MOVFF  FE9,0C
0018:  MOVFF  FEA,07
001C:  MOVFF  FE1,08
0020:  MOVFF  FE2,09
0024:  MOVFF  FD9,0A
0028:  MOVFF  FDA,0B
002C:  MOVFF  FF3,12
0030:  MOVFF  FF4,13
0034:  MOVFF  FFA,14
0038:  MOVFF  FF5,15
003C:  MOVFF  FF6,16
0040:  MOVFF  FF7,17
0044:  MOVFF  00,0E
0048:  MOVFF  01,0F
004C:  MOVFF  02,10
0050:  MOVFF  03,11
0054:  BTFSS  F9D.0
0056:  GOTO   0060
005A:  BTFSC  F9E.0
005C:  GOTO   0524
0060:  BTFSS  FF2.4
0062:  GOTO   006C
0066:  BTFSC  FF2.1
0068:  GOTO   0472
006C:  MOVFF  0E,00
0070:  MOVFF  0F,01
0074:  MOVFF  10,02
0078:  MOVFF  11,03
007C:  MOVFF  0C,FE9
0080:  MOVFF  07,FEA
0084:  BSF    07.7
0086:  MOVFF  08,FE1
008A:  MOVFF  09,FE2
008E:  MOVFF  0A,FD9
0092:  MOVFF  0B,FDA
0096:  MOVFF  12,FF3
009A:  MOVFF  13,FF4
009E:  MOVFF  14,FFA
00A2:  MOVFF  15,FF5
00A6:  MOVFF  16,FF6
00AA:  MOVFF  17,FF7
00AE:  MOVF   04,W
00B0:  MOVFF  06,FE0
00B4:  MOVFF  05,FD8
00B8:  RETFIE 0
.................... //#include <18F4680.h> 
.................... #include <18F4520.h> 
.................... //////////// Standard Header file for the PIC18F4520 device //////////////// 
.................... /////////////////////////////////////////////////////////////////////////// 
.................... ////        (C) Copyright 1996, 2014 Custom Computer Services          //// 
.................... //// This source code may only be used by licensed users of the CCS C  //// 
.................... //// compiler.  This source code may only be distributed to other      //// 
.................... //// licensed users of the CCS C compiler.  No other use, reproduction //// 
.................... //// or distribution is permitted without written permission.          //// 
.................... //// Derivative programs created using this software in object code    //// 
.................... //// form are not restricted in any way.                               //// 
.................... /////////////////////////////////////////////////////////////////////////// 
.................... #device PIC18F4520 
00BA:  CLRF   FF7
00BC:  ADDLW  CA
00BE:  MOVWF  FF6
00C0:  MOVLW  00
00C2:  ADDWFC FF7,F
00C4:  TBLRD*+
00C6:  MOVF   FF5,W
00C8:  RETURN 0
00CA:  DATA 00,01
00CC:  DATA 02,03
00CE:  DATA 04,05
00D0:  DATA 06,07
00D2:  CLRF   FF7
00D4:  ADDLW  E2
00D6:  MOVWF  FF6
00D8:  MOVLW  00
00DA:  ADDWFC FF7,F
00DC:  TBLRD*+
00DE:  MOVF   FF5,W
00E0:  RETURN 0
00E2:  DATA 73,74
00E4:  DATA 65,70
00E6:  DATA 55,50
00E8:  DATA 00,00
00EA:  CLRF   FF7
00EC:  ADDLW  FA
00EE:  MOVWF  FF6
00F0:  MOVLW  00
00F2:  ADDWFC FF7,F
00F4:  TBLRD*+
00F6:  MOVF   FF5,W
00F8:  RETURN 0
00FA:  DATA 73,74
00FC:  DATA 65,70
00FE:  DATA 44,4F
0100:  DATA 57,4E
0102:  DATA 00,00
0104:  CLRF   FF7
0106:  ADDLW  14
0108:  MOVWF  FF6
010A:  MOVLW  01
010C:  ADDWFC FF7,F
010E:  TBLRD*+
0110:  MOVF   FF5,W
0112:  RETURN 0
0114:  DATA 61,75
0116:  DATA 74,6F
0118:  DATA 54,75
011A:  DATA 6E,65
011C:  DATA 55,50
011E:  DATA 00,00
0120:  CLRF   FF7
0122:  ADDLW  30
0124:  MOVWF  FF6
0126:  MOVLW  01
0128:  ADDWFC FF7,F
012A:  TBLRD*+
012C:  MOVF   FF5,W
012E:  RETURN 0
0130:  DATA 61,75
0132:  DATA 74,6F
0134:  DATA 54,75
0136:  DATA 6E,65
0138:  DATA 44,4F
013A:  DATA 57,4E
013C:  DATA 00,00
013E:  CLRF   FF7
0140:  ADDLW  4E
0142:  MOVWF  FF6
0144:  MOVLW  01
0146:  ADDWFC FF7,F
0148:  TBLRD*+
014A:  MOVF   FF5,W
014C:  RETURN 0
014E:  DATA 55,50
0150:  DATA 00,00
0152:  CLRF   FF7
0154:  ADDLW  62
0156:  MOVWF  FF6
0158:  MOVLW  01
015A:  ADDWFC FF7,F
015C:  TBLRD*+
015E:  MOVF   FF5,W
0160:  RETURN 0
0162:  DATA 44,4F
0164:  DATA 57,4E
0166:  DATA 00,00
0168:  DATA 49,32
016A:  DATA 43,20
016C:  DATA 77,2E
016E:  DATA 61,64
0170:  DATA 64,72
0172:  DATA 3A,25
0174:  DATA 78,20
0176:  DATA 65,72
0178:  DATA 72,6F
017A:  DATA 72,20
017C:  DATA 74,72
017E:  DATA 79,28
0180:  DATA 73,29
0182:  DATA 3A,25
0184:  DATA 4C,75
0186:  DATA 20,73
0188:  DATA 74,61
018A:  DATA 74,75
018C:  DATA 73,3A
018E:  DATA 25,64
0190:  DATA 00,00
0192:  DATA 49,32
0194:  DATA 43,20
0196:  DATA 77,2E
0198:  DATA 61,64
019A:  DATA 64,72
019C:  DATA 3A,25
019E:  DATA 78,20
01A0:  DATA 41,43
01A2:  DATA 4B,00
01A4:  DATA 49,32
01A6:  DATA 43,20
01A8:  DATA 72,2E
01AA:  DATA 61,64
01AC:  DATA 64,72
01AE:  DATA 3A,25
01B0:  DATA 78,20
01B2:  DATA 41,43
01B4:  DATA 4B,00
01B6:  DATA 49,32
01B8:  DATA 43,20
01BA:  DATA 61,64
01BC:  DATA 64,72
01BE:  DATA 3A,25
01C0:  DATA 78,20
01C2:  DATA 21,41
01C4:  DATA 43,4B
01C6:  DATA 00,00
01C8:  DATA 49,32
01CA:  DATA 43,20
01CC:  DATA 61,64
01CE:  DATA 72,3A
01D0:  DATA 25,78
01D2:  DATA 20,43
01D4:  DATA 4F,4C
01D6:  DATA 49,53
01D8:  DATA 49,4F
01DA:  DATA 4E,00
01DC:  DATA 54,61
01DE:  DATA 20,6C
01E0:  DATA 69,6E
01E2:  DATA 69,6A
01E4:  DATA 6B,61
01E6:  DATA 20,70
01E8:  DATA 6F,77
01EA:  DATA 69,6E
01EC:  DATA 6E,61
01EE:  DATA 20,62
01F0:  DATA 79,63
01F2:  DATA 20,77
01F4:  DATA 79,6B
01F6:  DATA 61,73
01F8:  DATA 6F,77
01FA:  DATA 61,6E
01FC:  DATA 61,0D
01FE:  DATA 0A,00
0200:  DATA 53,65
0202:  DATA 74,20
0204:  DATA 62,61
0206:  DATA 63,6B
0208:  DATA 6C,69
020A:  DATA 67,68
020C:  DATA 74,20
020E:  DATA 25,64
0210:  DATA 00,00
0212:  DATA 45,45
0214:  DATA 50,52
0216:  DATA 4F,4D
0218:  DATA 20,69
021A:  DATA 73,20
021C:  DATA 64,61
021E:  DATA 6D,61
0220:  DATA 67,65
0222:  DATA 64,3F
0224:  DATA 00,00
0226:  DATA 45,45
0228:  DATA 50,52
022A:  DATA 4F,4D
022C:  DATA 20,69
022E:  DATA 73,20
0230:  DATA 64,61
0232:  DATA 6D,61
0234:  DATA 67,65
0236:  DATA 64,3F
0238:  DATA 00,00
023A:  DATA 54,61
023C:  DATA 20,6C
023E:  DATA 69,6E
0240:  DATA 69,6A
0242:  DATA 6B,61
0244:  DATA 20,70
0246:  DATA 6F,77
0248:  DATA 69,6E
024A:  DATA 6E,61
024C:  DATA 20,62
024E:  DATA 79,63
0250:  DATA 20,77
0252:  DATA 79,6B
0254:  DATA 61,73
0256:  DATA 6F,77
0258:  DATA 61,6E
025A:  DATA 61,0D
025C:  DATA 0A,00
025E:  DATA 52,65
0260:  DATA 73,65
0262:  DATA 74,20
0264:  DATA 6D,6F
0266:  DATA 64,75
0268:  DATA 6C,65
026A:  DATA 73,00
026C:  DATA 49,6E
026E:  DATA 69,74
0270:  DATA 20,64
0272:  DATA 65,76
0274:  DATA 69,63
0276:  DATA 65,20
0278:  DATA 00,00
027A:  DATA 25,73
027C:  DATA 20,54
027E:  DATA 45,41
0280:  DATA 35,37
0282:  DATA 36,37
0284:  DATA 00,00
0286:  DATA 25,73
0288:  DATA 20,4D
028A:  DATA 4B,42
028C:  DATA 5F,46
028E:  DATA 4D,00
0290:  DATA 25,73
0292:  DATA 20,4D
0294:  DATA 4B,42
0296:  DATA 5F,44
0298:  DATA 41,42
029A:  DATA 2B,00
029C:  DATA 25,73
029E:  DATA 20,4D
02A0:  DATA 4B,42
02A2:  DATA 5F,41
02A4:  DATA 4D,00
02A6:  DATA 25,73
02A8:  DATA 20,56
02AA:  DATA 4D,33
02AC:  DATA 00,00
02AE:  DATA 25,73
02B0:  DATA 20,56
02B2:  DATA 4D,33
02B4:  DATA 5F,52
02B6:  DATA 4E,44
02B8:  DATA 00,00
02BA:  DATA 25,73
02BC:  DATA 20,42
02BE:  DATA 4C,55
02C0:  DATA 45,00
02C2:  DATA 25,73
02C4:  DATA 20,41
02C6:  DATA 55,58
02C8:  DATA 00,00
02CA:  DATA 44,65
02CC:  DATA 76,20
02CE:  DATA 25,75
02D0:  DATA 20,6E
02D2:  DATA 6F,74
02D4:  DATA 20,73
02D6:  DATA 75,70
02D8:  DATA 70,6F
02DA:  DATA 74,72
02DC:  DATA 65,64
02DE:  DATA 00,00
02E0:  DATA 54,45
02E2:  DATA 41,35
02E4:  DATA 37,36
02E6:  DATA 37,20
02E8:  DATA 25,73
02EA:  DATA 00,00
02EC:  DATA 4D,6F
02EE:  DATA 6E,6B
02F0:  DATA 65,79
02F2:  DATA 42,6F
02F4:  DATA 61,72
02F6:  DATA 64,20
02F8:  DATA 46,4D
02FA:  DATA 20,25
02FC:  DATA 73,00
02FE:  DATA 4D,6F
0300:  DATA 6E,6B
0302:  DATA 65,79
0304:  DATA 42,6F
0306:  DATA 61,72
0308:  DATA 64,20
030A:  DATA 44,41
030C:  DATA 42,2B
030E:  DATA 20,25
0310:  DATA 73,00
0312:  DATA 4D,6F
0314:  DATA 6E,6B
0316:  DATA 65,79
0318:  DATA 42,6F
031A:  DATA 61,72
031C:  DATA 64,20
031E:  DATA 41,4D
0320:  DATA 20,25
0322:  DATA 73,00
0324:  DATA 56,4D
0326:  DATA 75,73
0328:  DATA 69,63
032A:  DATA 20,25
032C:  DATA 73,00
032E:  DATA 56,4D
0330:  DATA 75,73
0332:  DATA 69,63
0334:  DATA 20,52
0336:  DATA 44,4E
0338:  DATA 20,25
033A:  DATA 73,00
033C:  DATA 42,4C
033E:  DATA 55,45
0340:  DATA 54,4F
0342:  DATA 4F,54
0344:  DATA 48,20
0346:  DATA 25,73
0348:  DATA 00,00
034A:  DATA 41,55
034C:  DATA 58,20
034E:  DATA 25,73
0350:  DATA 00,00
0352:  DATA 44,65
0354:  DATA 76,20
0356:  DATA 6E,6F
0358:  DATA 74,20
035A:  DATA 73,75
035C:  DATA 70,70
035E:  DATA 6F,74
0360:  DATA 72,65
0362:  DATA 64,20
0364:  DATA 25,73
0366:  DATA 00,00
0368:  DATA 41,63
036A:  DATA 74,69
036C:  DATA 76,65
036E:  DATA 20,41
0370:  DATA 6E,74
0372:  DATA 65,6E
0374:  DATA 61,3A
0376:  DATA 25,73
0378:  DATA 00,00
037A:  DATA 54,72
037C:  DATA 65,62
037E:  DATA 6C,65
0380:  DATA 3A,25
0382:  DATA 73,00
0384:  DATA 4D,69
0386:  DATA 64,64
0388:  DATA 6C,65
038A:  DATA 3A,25
038C:  DATA 73,00
038E:  DATA 42,61
0390:  DATA 73,73
0392:  DATA 3A,25
0394:  DATA 73,00
0396:  DATA 4C,5F
0398:  DATA 48,5F
039A:  DATA 42,6F
039C:  DATA 6F,73
039E:  DATA 74,3A
03A0:  DATA 25,73
03A2:  DATA 00,00
03A4:  DATA 4C,65
03A6:  DATA 66,74
03A8:  DATA 2D,52
03AA:  DATA 69,67
03AC:  DATA 68,74
03AE:  DATA 3A,25
03B0:  DATA 73,00
03B2:  DATA 46,72
03B4:  DATA 6F,6E
03B6:  DATA 74,2D
03B8:  DATA 52,65
03BA:  DATA 61,72
03BC:  DATA 3A,25
03BE:  DATA 73,00
03C0:  DATA 42,61
03C2:  DATA 63,6B
03C4:  DATA 6C,69
03C6:  DATA 67,68
03C8:  DATA 74,3A
03CA:  DATA 25,73
03CC:  DATA 00,00
03CE:  DATA 45,51
03D0:  DATA 20,21
03D2:  DATA 73,75
03D4:  DATA 70,70
03D6:  DATA 2E,3A
03D8:  DATA 25,73
03DA:  DATA 00,00
*
047E:  MOVF   x8C,W
0480:  MULWF  x8E
0482:  MOVFF  FF3,01
0486:  MOVFF  FF4,00
048A:  MULWF  x8F
048C:  MOVF   FF3,W
048E:  ADDWF  00,F
0490:  MOVF   x8D,W
0492:  MULWF  x8E
0494:  MOVF   FF3,W
0496:  ADDWFC 00,W
0498:  MOVWF  02
049A:  GOTO   04F2 (RETURN)
049E:  CLRF   01
04A0:  CLRF   02
04A2:  CLRF   00
04A4:  CLRF   03
04A6:  MOVF   x91,W
04A8:  BNZ   04AE
04AA:  MOVF   x90,W
04AC:  BZ    04DE
04AE:  MOVLW  10
04B0:  MOVWF  x92
04B2:  BCF    FD8.0
04B4:  RLCF   x8E,F
04B6:  RLCF   x8F,F
04B8:  RLCF   00,F
04BA:  RLCF   03,F
04BC:  MOVF   x91,W
04BE:  SUBWF  03,W
04C0:  BNZ   04C6
04C2:  MOVF   x90,W
04C4:  SUBWF  00,W
04C6:  BNC   04D6
04C8:  MOVF   x90,W
04CA:  SUBWF  00,F
04CC:  BTFSS  FD8.0
04CE:  DECF   03,F
04D0:  MOVF   x91,W
04D2:  SUBWF  03,F
04D4:  BSF    FD8.0
04D6:  RLCF   01,F
04D8:  RLCF   02,F
04DA:  DECFSZ x92,F
04DC:  BRA    04B2
04DE:  GOTO   050A (RETURN)
*
053C:  DATA 4D,43
053E:  DATA 55,5F
0540:  DATA 66,77
0542:  DATA 5F,76
0544:  DATA 30,5F
0546:  DATA 31,5F
0548:  DATA 20,30
054A:  DATA 35,2D
054C:  DATA 6B,77
054E:  DATA 69,2D
0550:  DATA 31,39
0552:  DATA 20,31
0554:  DATA 30,3A
0556:  DATA 30,38
0558:  DATA 3A,33
055A:  DATA 36,00
055C:  DATA 41,6E
055E:  DATA 74,65
0560:  DATA 6E,61
0562:  DATA 20,70
0564:  DATA 6F,77
0566:  DATA 65,72
0568:  DATA 20,73
056A:  DATA 65,74
056C:  DATA 75,70
056E:  DATA 3A,25
0570:  DATA 78,00
0572:  DATA 52,61
0574:  DATA 64,69
0576:  DATA 6F,20
0578:  DATA 31,73
057A:  DATA 74,20
057C:  DATA 72,75
057E:  DATA 6E,2E
0580:  DATA 53,65
0582:  DATA 74,20
0584:  DATA 64,65
0586:  DATA 66,61
0588:  DATA 75,6C
058A:  DATA 74,20
058C:  DATA 76,61
058E:  DATA 6C,73
0590:  DATA 00,00
0592:  DATA 41,75
0594:  DATA 64,69
0596:  DATA 6F,20
0598:  DATA 64,65
059A:  DATA 76,3A
059C:  DATA 25,78
059E:  DATA 00,00
05A0:  DATA 4E,69
05A2:  DATA 65,20
05A4:  DATA 70,69
05A6:  DATA 73,7A
05A8:  DATA 65,20
05AA:  DATA 64,6F
05AC:  DATA 20,65
05AE:  DATA 65,70
05B0:  DATA 72,6F
05B2:  DATA 6D,20
05B4:  DATA 44,41
05B6:  DATA 42,2B
05B8:  DATA 20,64
05BA:  DATA 65,66
05BC:  DATA 61,75
05BE:  DATA 6C,74
05C0:  DATA 20,66
05C2:  DATA 72,65
05C4:  DATA 71,00
05C6:  DATA 4E,69
05C8:  DATA 65,20
05CA:  DATA 70,69
05CC:  DATA 73,7A
05CE:  DATA 65,20
05D0:  DATA 77,20
05D2:  DATA 65,65
05D4:  DATA 70,72
05D6:  DATA 6F,6D
05D8:  DATA 20,7A
05DA:  DATA 65,72
05DC:  DATA 6F,77
05DE:  DATA 65,6A
05E0:  DATA 20,67
05E2:  DATA 72,61
05E4:  DATA 6E,65
05E6:  DATA 6A,20
05E8:  DATA 6D,70
05EA:  DATA 33,00
05EC:  DATA 52,65
05EE:  DATA 61,64
05F0:  DATA 20,45
05F2:  DATA 45,70
05F4:  DATA 72,6F
05F6:  DATA 6D,00
05F8:  DATA 52,2E
05FA:  DATA 69,6E
05FC:  DATA 70,75
05FE:  DATA 74,20
0600:  DATA 25,64
0602:  DATA 00,00
0604:  DATA 52,2E
0606:  DATA 61,61
0608:  DATA 20,25
060A:  DATA 64,00
060C:  DATA 52,2E
060E:  DATA 66,6D
0610:  DATA 5F,66
0612:  DATA 72,65
0614:  DATA 71,00
0616:  DATA 52,2E
0618:  DATA 76,6F
061A:  DATA 6C,00
061C:  DATA 52,2E
061E:  DATA 74,72
0620:  DATA 65,00
0622:  DATA 52,2E
0624:  DATA 6D,69
0626:  DATA 64,00
0628:  DATA 52,2E
062A:  DATA 62,61
062C:  DATA 73,73
062E:  DATA 00,00
0630:  DATA 52,2E
0632:  DATA 62,6F
0634:  DATA 6F,73
0636:  DATA 74,00
0638:  DATA 52,2E
063A:  DATA 6C,2D
063C:  DATA 72,00
063E:  DATA 52,2E
0640:  DATA 66,2D
0642:  DATA 72,00
0644:  DATA 52,2E
0646:  DATA 61,6D
0648:  DATA 20,66
064A:  DATA 72,65
064C:  DATA 71,00
064E:  DATA 52,2E
0650:  DATA 42,43
0652:  DATA 4B,5F
0654:  DATA 6C,69
0656:  DATA 67,68
0658:  DATA 74,00
065A:  DATA 4E,69
065C:  DATA 65,20
065E:  DATA 63,7A
0660:  DATA 79,74
0662:  DATA 61,6D
0664:  DATA 20,7A
0666:  DATA 20,65
0668:  DATA 65,70
066A:  DATA 72,6F
066C:  DATA 6D,20
066E:  DATA 44,41
0670:  DATA 42,2B
0672:  DATA 20,64
0674:  DATA 65,66
0676:  DATA 61,75
0678:  DATA 6C,74
067A:  DATA 20,66
067C:  DATA 72,65
067E:  DATA 71,00
0680:  DATA 4E,69
0682:  DATA 65,20
0684:  DATA 63,7A
0686:  DATA 79,74
0688:  DATA 61,6D
068A:  DATA 20,7A
068C:  DATA 20,65
068E:  DATA 65,70
0690:  DATA 72,6F
0692:  DATA 6D,20
0694:  DATA 6F,73
0696:  DATA 74,61
0698:  DATA 74,6E
069A:  DATA 69,6F
069C:  DATA 20,67
069E:  DATA 72,61
06A0:  DATA 6E,65
06A2:  DATA 6A,20
06A4:  DATA 6D,70
06A6:  DATA 33,00
06A8:  DATA 56,6F
06AA:  DATA 6C,20
06AC:  DATA 6D,65
06AE:  DATA 6E,75
06B0:  DATA 00,00
06B2:  DATA 56,6F
06B4:  DATA 6C,2B
06B6:  DATA 00,00
06B8:  DATA 56,6F
06BA:  DATA 6C,2D
06BC:  DATA 00,00
06BE:  DATA 53,41
06C0:  DATA 56,45
06C2:  DATA 20,76
06C4:  DATA 6F,6C
06C6:  DATA 75,6D
06C8:  DATA 65,00
06CA:  DATA 50,6C
06CC:  DATA 61,79
06CE:  DATA 65,72
06D0:  DATA 20,73
06D2:  DATA 6F,75
06D4:  DATA 72,63
06D6:  DATA 65,20
06D8:  DATA 73,77
06DA:  DATA 69,74
06DC:  DATA 63,68
06DE:  DATA 00,00
06E0:  DATA 53,77
06E2:  DATA 69,74
06E4:  DATA 63,68
06E6:  DATA 20,69
06E8:  DATA 6E,70
06EA:  DATA 75,74
06EC:  DATA 00,00
06EE:  DATA 44,65
06F0:  DATA 76,2E
06F2:  DATA 20,25
06F4:  DATA 75,20
06F6:  DATA 69,6E
06F8:  DATA 69,74
06FA:  DATA 00,00
06FC:  DATA 45,71
06FE:  DATA 75,61
0700:  DATA 6C,69
0702:  DATA 73,65
0704:  DATA 72,20
0706:  DATA 6D,65
0708:  DATA 6E,75
070A:  DATA 00,00
070C:  DATA 45,51
070E:  DATA 20,73
0710:  DATA 75,62
0712:  DATA 6D,65
0714:  DATA 6E,75
0716:  DATA 20,25
0718:  DATA 75,00
071A:  DATA 53,41
071C:  DATA 56,45
071E:  DATA 20,45
0720:  DATA 51,55
0722:  DATA 41,4C
0724:  DATA 49,53
0726:  DATA 45,52
0728:  DATA 3A,00
072A:  DATA 53,41
072C:  DATA 56,45
072E:  DATA 20,42
0730:  DATA 43,4B
0732:  DATA 5F,6C
0734:  DATA 69,67
0736:  DATA 68,74
0738:  DATA 00,00
073A:  DATA 53,41
073C:  DATA 56,45
073E:  DATA 20,41
0740:  DATA 41,6E
0742:  DATA 74,65
0744:  DATA 6E,61
0746:  DATA 20,00
0748:  DATA 55,6E
074A:  DATA 73,75
074C:  DATA 70,70
074E:  DATA 6F,72
0750:  DATA 74,65
0752:  DATA 64,20
0754:  DATA 62,75
0756:  DATA 74,74
0758:  DATA 6F,6E
075A:  DATA 20,70
075C:  DATA 61,74
075E:  DATA 65,72
0760:  DATA 6E,3A
0762:  DATA 20,25
0764:  DATA 78,00
*
07CC:  TBLRD*+
07CE:  MOVF   FF5,F
07D0:  BZ    07EA
07D2:  MOVFF  FF6,76
07D6:  MOVFF  FF7,77
07DA:  MOVFF  FF5,8A
07DE:  RCALL  078C
07E0:  MOVFF  76,FF6
07E4:  MOVFF  77,FF7
07E8:  BRA    07CC
07EA:  RETURN 0
*
089E:  TBLRD*+
08A0:  MOVFF  FF6,82
08A4:  MOVFF  FF7,83
08A8:  MOVFF  FF5,8A
08AC:  RCALL  078C
08AE:  MOVFF  82,FF6
08B2:  MOVFF  83,FF7
08B6:  DECFSZ x81,F
08B8:  BRA    089E
08BA:  RETURN 0
08BC:  BTFSC  x82.7
08BE:  BRA    08DE
08C0:  MOVLW  0F
08C2:  MOVWF  00
08C4:  SWAPF  x81,W
08C6:  ANDWF  00,F
08C8:  MOVLW  0A
08CA:  SUBWF  00,W
08CC:  BC    08D4
08CE:  MOVLW  30
08D0:  ADDWF  00,F
08D2:  BRA    08D8
08D4:  MOVF   x82,W
08D6:  ADDWF  00,F
08D8:  MOVFF  00,8A
08DC:  RCALL  078C
08DE:  MOVLW  0F
08E0:  ANDWF  x81,F
08E2:  MOVLW  0A
08E4:  SUBWF  x81,W
08E6:  BC    08EC
08E8:  MOVLW  30
08EA:  BRA    08F0
08EC:  BCF    x82.7
08EE:  MOVF   x82,W
08F0:  ADDWF  x81,F
08F2:  MOVFF  81,8A
08F6:  RCALL  078C
08F8:  RETURN 0
08FA:  MOVFF  FEA,89
08FE:  MOVFF  FE9,88
0902:  SWAPF  x82,W
0904:  IORLW  F0
0906:  MOVWF  x84
0908:  ADDWF  x84,F
090A:  ADDLW  E2
090C:  MOVWF  x85
090E:  ADDLW  32
0910:  MOVWF  x87
0912:  MOVF   x82,W
0914:  ANDLW  0F
0916:  ADDWF  x85,F
0918:  ADDWF  x85,F
091A:  ADDWF  x87,F
091C:  ADDLW  E9
091E:  MOVWF  x86
0920:  ADDWF  x86,F
0922:  ADDWF  x86,F
0924:  SWAPF  x81,W
0926:  ANDLW  0F
0928:  ADDWF  x86,F
092A:  ADDWF  x87,F
092C:  RLCF   x86,F
092E:  RLCF   x87,F
0930:  COMF   x87,F
0932:  RLCF   x87,F
0934:  MOVF   x81,W
0936:  ANDLW  0F
0938:  ADDWF  x87,F
093A:  RLCF   x84,F
093C:  MOVLW  07
093E:  MOVWF  x83
0940:  MOVLW  0A
0942:  DECF   x86,F
0944:  ADDWF  x87,F
0946:  BNC   0942
0948:  DECF   x85,F
094A:  ADDWF  x86,F
094C:  BNC   0948
094E:  DECF   x84,F
0950:  ADDWF  x85,F
0952:  BNC   094E
0954:  DECF   x83,F
0956:  ADDWF  x84,F
0958:  BNC   0954
095A:  CLRF   FEA
095C:  MOVLW  83
095E:  MOVWF  FE9
0960:  MOVLW  07
0962:  ANDWF  x88,W
0964:  BCF    x88.6
0966:  ADDWF  FE9,F
0968:  MOVLW  00
096A:  ADDWFC FEA,F
096C:  MOVF   FE9,W
096E:  SUBLW  87
0970:  BNZ   0978
0972:  MOVF   FEA,F
0974:  BNZ   0978
0976:  BSF    x88.6
0978:  MOVF   FEF,W
097A:  MOVWF  00
097C:  BNZ   098E
097E:  BTFSC  x88.6
0980:  BRA    098E
0982:  BTFSC  x88.4
0984:  BRA    09AC
0986:  BTFSC  x88.3
0988:  BRA    098E
098A:  MOVLW  20
098C:  BRA    0994
098E:  BSF    x88.3
0990:  BCF    x88.4
0992:  MOVLW  30
0994:  ADDWF  00,F
0996:  MOVFF  FEA,82
099A:  MOVFF  FE9,81
099E:  MOVFF  00,8A
09A2:  RCALL  078C
09A4:  MOVFF  82,FEA
09A8:  MOVFF  81,FE9
09AC:  MOVF   FEE,W
09AE:  BTFSS  x88.6
09B0:  BRA    096C
09B2:  GOTO   0AF8 (RETURN)
09B6:  MOVF   x88,W
09B8:  CLRF   01
09BA:  SUBWF  x87,W
09BC:  BC    09C4
09BE:  MOVFF  87,00
09C2:  BRA    09DC
09C4:  CLRF   00
09C6:  MOVLW  08
09C8:  MOVWF  x89
09CA:  RLCF   x87,F
09CC:  RLCF   00,F
09CE:  MOVF   x88,W
09D0:  SUBWF  00,W
09D2:  BTFSC  FD8.0
09D4:  MOVWF  00
09D6:  RLCF   01,F
09D8:  DECFSZ x89,F
09DA:  BRA    09CA
09DC:  RETURN 0
09DE:  MOVLW  20
09E0:  BTFSS  x82.4
09E2:  MOVLW  30
09E4:  MOVWF  x83
09E6:  MOVFF  81,00
09EA:  BTFSS  x81.7
09EC:  BRA    09FE
09EE:  COMF   00,F
09F0:  INCF   00,F
09F2:  MOVFF  00,81
09F6:  MOVLW  2D
09F8:  MOVWF  x83
09FA:  BSF    x82.7
09FC:  BSF    x82.0
09FE:  MOVF   01,W
0A00:  MOVFF  81,87
0A04:  MOVLW  64
0A06:  MOVWF  x88
0A08:  RCALL  09B6
0A0A:  MOVFF  00,81
0A0E:  MOVLW  30
0A10:  ADDWF  01,W
0A12:  MOVWF  x84
0A14:  MOVFF  81,87
0A18:  MOVLW  0A
0A1A:  MOVWF  x88
0A1C:  RCALL  09B6
0A1E:  MOVLW  30
0A20:  ADDWF  00,W
0A22:  MOVWF  x86
0A24:  MOVLW  30
0A26:  ADDWF  01,W
0A28:  MOVWF  x85
0A2A:  MOVFF  83,00
0A2E:  MOVLW  30
0A30:  SUBWF  x84,W
0A32:  BZ    0A3C
0A34:  BSF    x82.1
0A36:  BTFSC  x82.7
0A38:  BSF    x82.2
0A3A:  BRA    0A60
0A3C:  MOVFF  83,84
0A40:  MOVLW  20
0A42:  MOVWF  x83
0A44:  MOVLW  30
0A46:  SUBWF  x85,W
0A48:  BZ    0A52
0A4A:  BSF    x82.0
0A4C:  BTFSC  x82.7
0A4E:  BSF    x82.1
0A50:  BRA    0A60
0A52:  BTFSS  FD8.2
0A54:  BSF    x82.0
0A56:  BNZ   0A60
0A58:  MOVFF  84,85
0A5C:  MOVLW  20
0A5E:  MOVWF  x84
0A60:  BTFSC  x82.2
0A62:  BRA    0A6E
0A64:  BTFSC  x82.1
0A66:  BRA    0A74
0A68:  BTFSC  x82.0
0A6A:  BRA    0A7A
0A6C:  BRA    0A80
0A6E:  MOVFF  83,8A
0A72:  RCALL  078C
0A74:  MOVFF  84,8A
0A78:  RCALL  078C
0A7A:  MOVFF  85,8A
0A7E:  RCALL  078C
0A80:  MOVFF  86,8A
0A84:  RCALL  078C
0A86:  RETURN 0
*
10A8:  MOVF   01,W
10AA:  MOVFF  66,87
10AE:  MOVLW  64
10B0:  MOVWF  x88
10B2:  RCALL  09B6
10B4:  MOVFF  00,66
10B8:  MOVF   01,W
10BA:  MOVLW  30
10BC:  BNZ   10CC
10BE:  BTFSS  67.1
10C0:  BRA    10DC
10C2:  BTFSC  67.3
10C4:  BRA    10DC
10C6:  BTFSC  67.4
10C8:  MOVLW  20
10CA:  BRA    10D2
10CC:  BCF    67.3
10CE:  BCF    67.4
10D0:  BSF    67.0
10D2:  ADDWF  01,F
10D4:  MOVFF  01,8A
10D8:  CALL   078C
10DC:  MOVFF  66,87
10E0:  MOVLW  0A
10E2:  MOVWF  x88
10E4:  RCALL  09B6
10E6:  MOVFF  00,66
10EA:  MOVF   01,W
10EC:  MOVLW  30
10EE:  BNZ   10FC
10F0:  BTFSC  67.3
10F2:  BRA    1106
10F4:  BTFSS  67.0
10F6:  BRA    1106
10F8:  BTFSC  67.4
10FA:  MOVLW  20
10FC:  ADDWF  01,F
10FE:  MOVFF  01,8A
1102:  CALL   078C
1106:  MOVLW  30
1108:  ADDWF  66,F
110A:  MOVFF  66,8A
110E:  CALL   078C
1112:  RETURN 0
*
11B8:  CLRF   00
11BA:  CLRF   01
11BC:  MOVF   67,W
11BE:  BCF    FD8.0
11C0:  BTFSC  68.0
11C2:  ADDWF  00,F
11C4:  RRCF   00,F
11C6:  RRCF   01,F
11C8:  BTFSC  68.1
11CA:  ADDWF  00,F
11CC:  RRCF   00,F
11CE:  RRCF   01,F
11D0:  BTFSC  68.2
11D2:  ADDWF  00,F
11D4:  RRCF   00,F
11D6:  RRCF   01,F
11D8:  BTFSC  68.3
11DA:  ADDWF  00,F
11DC:  RRCF   00,F
11DE:  RRCF   01,F
11E0:  BTFSC  68.4
11E2:  ADDWF  00,F
11E4:  RRCF   00,F
11E6:  RRCF   01,F
11E8:  BTFSC  68.5
11EA:  ADDWF  00,F
11EC:  RRCF   00,F
11EE:  RRCF   01,F
11F0:  BTFSC  68.6
11F2:  ADDWF  00,F
11F4:  RRCF   00,F
11F6:  RRCF   01,F
11F8:  BTFSC  68.7
11FA:  ADDWF  00,F
11FC:  RRCF   00,F
11FE:  RRCF   01,F
1200:  GOTO   13CE (RETURN)
*
1536:  ADDWF  FE8,W
1538:  CLRF   FF7
153A:  RLCF   FF7,F
153C:  ADDLW  51
153E:  MOVWF  FF6
1540:  MOVLW  15
1542:  ADDWFC FF7,F
1544:  TBLRD*-
1546:  MOVF   FF5,W
1548:  MOVWF  FFA
154A:  TBLRD*
154C:  MOVF   FF5,W
154E:  MOVWF  FF9
1550:  DATA 24,12
1552:  DATA 7C,12
1554:  DATA E8,12
1556:  DATA 54,13
1558:  DATA DE,13
155A:  DATA 1C,14
155C:  DATA 5A,14
155E:  DATA 96,14
1560:  DATA D4,14
1562:  MOVF   FEF,F
1564:  BZ    1586
1566:  MOVFF  FEA,72
156A:  MOVFF  FE9,71
156E:  MOVFF  FEF,8A
1572:  CALL   078C
1576:  MOVFF  72,FEA
157A:  MOVFF  71,FE9
157E:  INCF   FE9,F
1580:  BTFSC  FD8.2
1582:  INCF   FEA,F
1584:  BRA    1562
1586:  RETURN 0
*
171E:  ADDWF  FE8,W
1720:  CLRF   FF7
1722:  RLCF   FF7,F
1724:  ADDLW  39
1726:  MOVWF  FF6
1728:  MOVLW  17
172A:  ADDWFC FF7,F
172C:  TBLRD*-
172E:  MOVF   FF5,W
1730:  MOVWF  FFA
1732:  TBLRD*
1734:  MOVF   FF5,W
1736:  MOVWF  FF9
1738:  DATA 94,15
173A:  DATA AE,15
173C:  DATA C8,15
173E:  DATA FA,15
1740:  DATA E2,15
1742:  ADDWF  FE8,W
1744:  CLRF   FF7
1746:  RLCF   FF7,F
1748:  ADDLW  5D
174A:  MOVWF  FF6
174C:  MOVLW  17
174E:  ADDWFC FF7,F
1750:  TBLRD*-
1752:  MOVF   FF5,W
1754:  MOVWF  FFA
1756:  TBLRD*
1758:  MOVF   FF5,W
175A:  MOVWF  FF9
175C:  DATA 10,16
175E:  DATA 2E,16
1760:  DATA 4C,16
1762:  DATA 6A,16
1764:  DATA 88,16
1766:  DATA A6,16
1768:  DATA C4,16
176A:  DATA E2,16
176C:  DATA 00,17
*
17FA:  ADDWF  FE8,W
17FC:  CLRF   FF7
17FE:  RLCF   FF7,F
1800:  ADDLW  15
1802:  MOVWF  FF6
1804:  MOVLW  18
1806:  ADDWFC FF7,F
1808:  TBLRD*-
180A:  MOVF   FF5,W
180C:  MOVWF  FFA
180E:  TBLRD*
1810:  MOVF   FF5,W
1812:  MOVWF  FF9
1814:  DATA 92,17
1816:  DATA 9E,17
1818:  DATA A8,17
181A:  DATA B4,17
181C:  DATA C0,17
181E:  DATA CC,17
1820:  DATA DC,17
1822:  DATA EC,17
*
1AD8:  ADDWF  FE8,W
1ADA:  CLRF   FF7
1ADC:  RLCF   FF7,F
1ADE:  ADDLW  F3
1AE0:  MOVWF  FF6
1AE2:  MOVLW  1A
1AE4:  ADDWFC FF7,F
1AE6:  TBLRD*-
1AE8:  MOVF   FF5,W
1AEA:  MOVWF  FFA
1AEC:  TBLRD*
1AEE:  MOVF   FF5,W
1AF0:  MOVWF  FF9
1AF2:  DATA C0,18
1AF4:  DATA BE,19
1AF6:  DATA DC,19
1AF8:  DATA FA,19
1AFA:  DATA 18,1A
1AFC:  DATA 36,1A
1AFE:  DATA 54,1A
1B00:  DATA 72,1A
1B02:  DATA BA,1A
....................  
.................... #list 
....................  
.................... #define device getenv("DEVICE") 
....................  
.................... #ifndef __CONFIG_FILE__ 
....................    #include<mcu_main_MASTER_CONFIG_FILE.h> 
.................... #define master_fw_version  "MCU_fw_v0_1_ " 
....................  
....................  
....................  
.................... #ifndef __CONFIG_FILE__ 
.................... #define __CONFIG_FILE__ 
....................  
.................... #define _USE_LOGPORT_               //chode one of _USE_LOGPORT_ (on RB7 aka on ICSP pin) or DEBUG_ENABLED 
.................... //#define DEBUG_ENABLED             //chode one of _USE_LOGPORT_ or DEBUG_ENABLED 
....................  
....................  
.................... /*--------------------------------------------*/ 
.................... /*---------- Hardware configuration ----------*/ 
.................... /*--------------------------------------------*/ 
.................... #define US_EU_FM_RADIO           //use one of US_EU_FM_RADIO or JAPAN_FM_RADIO 
.................... //#define JAPAN_FM_RADIO 
....................  
.................... #define EU_AM_RADIO              //use one of EU_AM_RADIO  or US_AM_RADIO 
.................... //#define US_AM_RADIO 
....................  
.................... #define _USE_BACKLIGHT_ 
.................... //#define _USE_ACTIVE_ANTENA_      //importowanie ACTIVE ANTENA 
....................  
.................... #define _USE_TEA5767_ 
.................... #define _USE_MNONKEYBOARD_DAB_ 
.................... #define _USE_VMUSIC3_ 
.................... #define _USE_AUX_ 
.................... #define _USE_BLUETOOTH_ 
.................... /*--------------------------------------------*/ 
.................... /*---------- Hardware configuration ----------*/ 
.................... /*--------------------------------------------*/ 
....................  
.................... /*--------------------------------------------*/ 
.................... /*-------- PIC MCU pins configuration --------*/ 
.................... /*--------------------------------------------*/ 
.................... #define _USE_debounce_function_ 
.................... #define  Encoder_1_plus       pin_A0 
.................... #define  Encoder_1_minus      pin_A1 
.................... #define  Encoder_2_plus       pin_A2 
.................... #define  Encoder_2_minus      pin_A3 
.................... #define  button1              pin_A4 
.................... #define  button2              pin_A5 
.................... #define  button3              pin_E0 
.................... #define  button4              pin_E1 
.................... #define  keyboard_interrupt   pin_B0 
.................... //define button5        //jeœli go u¿yjesz to nale¿y go dopisaæ w ifie funkcji read_keyboard_value 
.................... //define button6        //jeœli go u¿yjesz to nale¿y go dopisaæ w ifie funkcji read_keyboard_value 
....................  
....................  
.................... #if device=="PIC18F4520" 
....................    #define _I2C_SCL  PIN_C3 
....................    #define _I2C_SDA  PIN_C4 
.................... #endif 
....................  
.................... #if device=="PIC18F4620" 
....................    #define _I2C_SCL  PIN_C3 
....................    #define _I2C_SDA  PIN_C4 
.................... #endif 
....................  
.................... /*#if device=="PIC16F1939" 
....................    #define  _I2C_SDA             PIN_D1 
....................    #define  _I2C_SCL             PIN_D0 
.................... #endif*/ 
....................  
.................... #define FM_ANTENA_POWR_ON_OFF_pin         PIN_B5 
.................... #define DAB_FM_CONVERTER_POWR_ON_OFF_pin  PIN_B4 
.................... #define DAB_ANTENA_POWR_ON_OFF_pin         PIN_D7 
....................  
.................... /*--------------------------------------------*/ 
.................... /*-------- PIC MCU pins configuration --------*/ 
.................... /*--------------------------------------------*/ 
....................  
....................  
....................  
....................  
.................... #endif 
....................  
.................... #endif 
....................  
.................... #include <mcu_main.h> 
.................... //#if device=="PIC18F4520" 
....................    #FUSES nomclr   //TODO: Wykasowaæ w ostatecznej wersji programu dla gotowej p³yty MCU 
....................    #FUSES BROWNOUT 
....................    #FUSES PROTECT 
.................... //#endif 
....................  
.................... #device ADC=10 
.................... #use delay(crystal=20000000) 
*
0766:  CLRF   FEA
0768:  MOVLW  76
076A:  MOVWF  FE9
076C:  MOVF   FEF,W
076E:  BZ    078A
0770:  MOVLW  06
0772:  MOVWF  01
0774:  CLRF   00
0776:  DECFSZ 00,F
0778:  BRA    0776
077A:  DECFSZ 01,F
077C:  BRA    0774
077E:  MOVLW  7B
0780:  MOVWF  00
0782:  DECFSZ 00,F
0784:  BRA    0782
0786:  DECFSZ FEF,F
0788:  BRA    0770
078A:  RETURN 0
*
0A88:  MOVLW  03
0A8A:  SUBWF  x81,F
0A8C:  BNC   0AA0
0A8E:  CLRF   FEA
0A90:  MOVLW  81
0A92:  MOVWF  FE9
0A94:  MOVF   FEF,W
0A96:  BZ    0AA0
0A98:  BRA    0A9C
0A9A:  BRA    0A9C
0A9C:  DECFSZ FEF,F
0A9E:  BRA    0A9A
0AA0:  GOTO   0B20 (RETURN)
....................  
.................... #use i2c(Master,Slow,sda=_I2C_SDA,scl=_I2C_SCL) 
*
0848:  BCF    FC6.7
084A:  BCF    F9E.3
084C:  MOVFF  83,FC9
0850:  MOVLW  02
0852:  BTFSC  FC6.7
0854:  BRA    0860
0856:  BTFSS  F9E.3
0858:  BRA    0856
085A:  MOVLW  00
085C:  BTFSC  FC5.6
085E:  MOVLW  01
0860:  MOVWF  01
0862:  RETURN 0
*
0B2A:  BCF    FC6.6
0B2C:  BSF    FC5.3
0B2E:  BTFSC  FC5.3
0B30:  BRA    0B2E
0B32:  BTFSC  00.0
0B34:  BCF    FC5.5
0B36:  BTFSS  00.0
0B38:  BSF    FC5.5
0B3A:  BSF    FC5.4
0B3C:  BTFSC  FC5.4
0B3E:  BRA    0B3C
0B40:  MOVFF  FC9,01
0B44:  GOTO   0C1C (RETURN)
....................  
.................... //#use rs232(baud=38400 ,parity=N,xmit=PIN_C6,RCV=PIN_C7, bits=8,stream=comm_port)//, DISABLE_INTS) 
.................... //#use rs232(UART1,baud=38400 ,parity=N,xmit=PIN_C6,rcv=PIN_C7,bits=8,stream=Hardware__comm_port) 
.................... #use rs232(UART1,baud=38400 ,parity=N,xmit=PIN_C6,rcv=PIN_C7,bits=8,stream=Hardware__comm_port, ERRORS) 
....................  
.................... #if defined(DEBUG_ENABLED) 
....................    //#use rs232(ICD,stream=ICD_DBG,DISABLE_INTS) 
....................    #use rs232(baud=38400,parity=N,xmit=PIN_B7,bits=8,stream=LOG_PORT, DISABLE_INTS) 
....................    #define dbg_return_carriage() fprintf_return_carriage() 
....................    #define dbg_printf(fmt,...)   fprintf(LOG_PORT,fmt,__VA_ARGS__); dbg_return_carriage() 
....................  
.................... #elif defined(_USE_LOGPORT_) 
....................    #use rs232(baud=38400,parity=N,xmit=PIN_B7,bits=8,stream=LOG_PORT)//, DISABLE_INTS) 
*
078C:  BCF    F93.7
078E:  BCF    F8A.7
0790:  MOVLW  08
0792:  MOVWF  01
0794:  BRA    0796
0796:  NOP   
0798:  BSF    01.7
079A:  BRA    07B8
079C:  BCF    01.7
079E:  RRCF   x8A,F
07A0:  BTFSC  FD8.0
07A2:  BSF    F8A.7
07A4:  BTFSS  FD8.0
07A6:  BCF    F8A.7
07A8:  BSF    01.6
07AA:  BRA    07B8
07AC:  BCF    01.6
07AE:  DECFSZ 01,F
07B0:  BRA    079E
07B2:  BRA    07B4
07B4:  NOP   
07B6:  BSF    F8A.7
07B8:  MOVLW  25
07BA:  MOVWF  FE9
07BC:  DECFSZ FE9,F
07BE:  BRA    07BC
07C0:  NOP   
07C2:  BTFSC  01.7
07C4:  BRA    079C
07C6:  BTFSC  01.6
07C8:  BRA    07AC
07CA:  RETURN 0
....................    //#use rs232(baud=38400,parity=N,xmit=PIN_B7,bits=8,stream=LOG_PORT)//, DISABLE_INTS) 
....................    #define dbg_return_carriage() fprintf_return_carriage() 
....................    #define dbg_printf(fmt,...)   fprintf(LOG_PORT,fmt,__VA_ARGS__); dbg_return_carriage() 
.................... #else 
....................    #define dbg_printf(fmt,...)   // 
....................    #define dbg_return_carriage() // 
.................... #endif 
....................  
....................  
....................  
....................  
.................... #use standard_io(A) 
.................... #use standard_io(B) 
.................... #use standard_io(C) 
.................... #use standard_io(D) 
.................... #use standard_io(E) 
....................  
.................... //#use FIXED_IO( B_outputs=PIN_B0,PIN_B2,PIN_B3,PIN_B4,PIN_B5) 
.................... //#use FIXED_IO( C_outputs=PIN_C0,PIN_C1,PIN_C2)    
.................... //#use FIXED_IO( D_outputs=PIN_D0,PIN_D2,PIN_D7)  
....................  
....................    void fprintf_return_carriage(void) 
....................    { 
....................       fprintf(LOG_PORT,"\r\n"); 
*
07EC:  MOVLW  0D
07EE:  MOVWF  x8A
07F0:  RCALL  078C
07F2:  MOVLW  0A
07F4:  MOVWF  x8A
07F6:  RCALL  078C
07F8:  RETURN 0
....................       //fprintf(LOG_PORT,"%c%c", 0x0a,0x0d); 
....................    } 
....................  
....................  
....................     
.................... #ifndef __keyboard__ 
....................    #include</MCU_include/hardware/keyboard/kyeboard.c> 
.................... #ifndef __keyboard__ 
.................... //#define __keyboard__ 
.................... #include<kyeboard.h> 
.................... #ifndef __keyboard__ 
....................    #define __keyboard__ 
....................     
....................    #define keyboar                     input_a() 
....................    #define button3_button4             (input_e()&0b00000011) 
....................    //#define button4   PIN_E1 
....................     
....................    #define encoder1_right_pattern      0b00000001 
....................    #define encoder1_left_pattern       0b00000010 
....................    #define encoder2_right_pattern      0b00000100 
....................    #define encoder2_left_pattern       0b00001000 
....................    #define button1_pattern             0b00010000 
....................    #define button2_pattern             0b00100000 
....................    #define button3_pattern             0b01000000 
....................    #define button4_pattern             0b10000000 
....................    #define button1_long_pattern                             //in case of Volume roto encoder breakdown (encoder1_right_pattern breakdown) 
....................    #define button2_long_pattern                             //in case of Volume roto encoder breakdown (encoder1_left_pattern breakdown)  
....................    #define button3_long_pattern                             //in case of Equaliser roto encoder breakdown (encoder2_right_pattern breakdown) 
....................    #define button4_long_pattern                             //in case of Equaliser roto encoder breakdown (encoder2_left_pattern breakdown)  
....................     
....................    #define debounce_time               2                   //ms 
....................    #define deboundec_input             keyboard_interrupt      //PIN_B0 //Keyboard interrupt pin 
....................    void debounce_inputs(int16); 
....................     
....................    void init_keyboard(void); 
....................    void read_keyboard_value(void); 
....................    void clear_keyboard_value(void); 
....................     
....................     
....................    void set_button_loop_breakout(void); 
....................    void reset_button_loop_breakout(void); 
....................  
.................... #endif 
....................  
....................  
....................  
.................... //  /*keyboard interrupt handling*/ 
.................... //  #ifndef __keyboard_interrupt__ 
.................... //     #define __keyboard_interrupt__ 
.................... //      #INT_EXT 
.................... //      void  EXT_isr(void) 
.................... //      { 
.................... //          disable_interrupts(INT_TIMER1); 
.................... //          read_keyboard_value(); 
.................... //          enable_interrupts(INT_TIMER1); 
.................... //      } 
.................... //   #endif 
.................... //  /*keyboard interrupt handling*/ 
....................  
....................  
....................  
.................... unsigned int8 button_value_pattern; 
.................... int1          button_loop_breakout; 
....................  
.................... void set_button_loop_breakout(void) 
....................     { 
....................     button_loop_breakout = 1; 
*
0004:  BSF    1B.0
0006:  RETURN 0
....................     } 
....................  
.................... void reset_button_loop_breakout(void) 
....................     { 
....................     button_loop_breakout = 0; 
*
1058:  BCF    1B.0
105A:  GOTO   1062 (RETURN)
....................     } 
....................  
.................... void init_keyboard(void) 
....................     { 
....................     button_value_pattern =0; 
*
0FA8:  CLRF   1A
....................     ext_int_edge(1, L_TO_H); 
0FAA:  BSF    FF1.5
....................     enable_interrupts(INT_EXT); 
0FAC:  BSF    FF2.4
0FAE:  GOTO   212A (RETURN)
....................     //reset_button_loop_breakout(); 
....................     } 
....................  
.................... void debounce_inputs(int16 time2debounce) 
*
03DC:  CLRF   x8E
03DE:  CLRF   x8D
03E0:  CLRF   x90
03E2:  CLRF   x8F
....................     { 
....................     //unsigned int16 COUNT_TARGET = (unsigned int16) (time2debounce_us/100)+1; 
....................     unsigned int16 count_low_signal_A=0; 
....................     unsigned int16 count_high_signal_A=0; 
....................     do 
....................         { 
....................         delay_us(100); 
03E4:  MOVLW  A6
03E6:  MOVWF  00
03E8:  DECFSZ 00,F
03EA:  BRA    03E8
03EC:  NOP   
....................         if (input(deboundec_input) == 0) 
03EE:  BSF    F93.0
03F0:  BTFSC  F81.0
03F2:  BRA    0400
....................             { 
....................             count_low_signal_A++; 
03F4:  INCF   x8D,F
03F6:  BTFSC  FD8.2
03F8:  INCF   x8E,F
....................             count_high_signal_A = 0; 
03FA:  CLRF   x90
03FC:  CLRF   x8F
....................             } 
03FE:  BRA    040A
....................         else 
....................             { 
....................             count_low_signal_A = 0; 
0400:  CLRF   x8E
0402:  CLRF   x8D
....................             count_high_signal_A++; 
0404:  INCF   x8F,F
0406:  BTFSC  FD8.2
0408:  INCF   x90,F
....................             } 
....................         } 
....................     while(!((count_low_signal_A > time2debounce) || (count_high_signal_A > time2debounce))); 
040A:  MOVF   x8C,W
040C:  SUBWF  x8E,W
040E:  BNC   0418
0410:  BNZ   0426
0412:  MOVF   x8D,W
0414:  SUBWF  x8B,W
0416:  BNC   0426
0418:  MOVF   x8C,W
041A:  SUBWF  x90,W
041C:  BNC   03E4
041E:  BNZ   0426
0420:  MOVF   x8F,W
0422:  SUBWF  x8B,W
0424:  BC    03E4
0426:  GOTO   044C (RETURN)
....................     } 
....................  
....................  
....................  
.................... void read_keyboard_value(void) 
....................     { 
....................     disable_interrupts(INT_EXT); 
042A:  BCF    FF2.4
....................     #ifdef _USE_debounce_function_ 
....................     if (input(button1)==1 || input(button2)==1 || input(button3)==1 || input(button4)==1)    //sprawdzanie tylko dla przycisków 
042C:  BSF    F92.4
042E:  BTFSC  F80.4
0430:  BRA    0444
0432:  BSF    F92.5
0434:  BTFSC  F80.5
0436:  BRA    0444
0438:  BSF    F96.0
043A:  BTFSC  F84.0
043C:  BRA    0444
043E:  BSF    F96.1
0440:  BTFSS  F84.1
0442:  BRA    044C
....................     { 
....................       debounce_inputs(debounce_time); 
0444:  CLRF   x8C
0446:  MOVLW  02
0448:  MOVWF  x8B
044A:  BRA    03DC
....................     } 
....................     #endif 
....................     button_value_pattern = button3_button4<<6|keyboar; 
044C:  BSF    F96.0
044E:  BSF    F96.1
0450:  BSF    F96.2
0452:  BSF    F96.3
0454:  MOVF   F84,W
0456:  ANDLW  03
0458:  MOVWF  00
045A:  SWAPF  00,W
045C:  MOVWF  x8B
045E:  RLCF   x8B,F
0460:  RLCF   x8B,F
0462:  MOVLW  C0
0464:  ANDWF  x8B,F
0466:  SETF   F92
0468:  MOVF   F80,W
046A:  IORWF  x8B,W
046C:  MOVWF  1A
046E:  GOTO   0476 (RETURN)
....................     } 
....................  
....................  
.................... void clear_keyboard_value(void) 
....................     { 
....................     if (button_value_pattern) 
*
102A:  MOVF   1A,F
102C:  BZ    1034
....................         { 
....................         button_value_pattern =0; 
102E:  CLRF   1A
....................         enable_interrupts(INT_EXT); 
1030:  BSF    FF2.4
....................         clear_interrupt(INT_EXT_L2H); 
1032:  BCF    FF2.1
....................         } 
1034:  RETURN 0
....................     } 
.................... //#endif 
....................  
.................... #endif 
....................  
....................  
....................  
.................... #ifndef _i2c_HMISTEPPER_MOTOR_ 
....................    #include </MCU_include/hardware/I2C_HMI/i2c_HMI_STEPPER_MOTOR/i2c_HMI_STEPPER_MOTOR.c>  
.................... #include <i2c_HMI_STEPPER_MOTOR.h> 
.................... #ifndef _i2c_HMISTEPPER_MOTOR_ 
....................    #define _i2c_HMISTEPPER_MOTOR_ 
....................  
.................... /*   #ifndef _i2c_Slave_buffer_addresses_ 
....................       #include </HMI_MCU_common_includes/HMI_i2c_Slave_buffer_addresses/i2c_Slave_buffer_addresses.h> 
....................       #include </HMI_MCU_common_includes/HMI_i2c_slave_address/i2c_slave_address.h>   
....................    #endif*/ 
....................     
....................    #ifndef _I2C_ENGINE_ 
....................       #include </MCU_include/core/I2C_Engine/I2C_Engine.c> 
.................... /**************************************************************************/ 
.................... /*!  
....................     @file     i2c_engine.c 
....................     @author   D. Bankowski (d.bankowski@gmail.com) 
....................      
....................     @brief    Driver for i2c master. 
....................     @section LICENSE 
....................     Software License Agreement (BSD License) 
....................     Copyright (c) 2017, D. Bankowski 
....................     All rights reserved. 
....................     Redistribution and use in source and binary forms, with or without 
....................     modification, are permitted provided that the following conditions are met: 
....................     1. Redistributions of source code must retain the above copyright 
....................     notice, this list of conditions and the following disclaimer. 
....................     2. Redistributions in binary form must reproduce the above copyright 
....................     notice, this list of conditions and the following disclaimer in the 
....................     documentation and/or other materials provided with the distribution. 
....................     3. Neither the name of the copyright holders nor the 
....................     names of its contributors may be used to endorse or promote products 
....................     derived from this software without specific prior written permission. 
....................     THIS SOFTWARE IS PROVIDED BY THE COPYRIGHT HOLDERS ''AS IS'' AND ANY 
....................     EXPRESS OR IMPLIED WARRANTIES, INCLUDING, BUT NOT LIMITED TO, THE IMPLIED 
....................     WARRANTIES OF MERCHANTABILITY AND FITNESS FOR A PARTICULAR PURPOSE ARE 
....................     DISCLAIMED. IN NO EVENT SHALL THE COPYRIGHT HOLDER BE LIABLE FOR ANY 
....................     DIRECT, INDIRECT, INCIDENTAL, SPECIAL, EXEMPLARY, OR CONSEQUENTIAL DAMAGES 
....................     (INCLUDING, BUT NOT LIMITED TO, PROCUREMENT OF SUBSTITUTE GOODS OR SERVICES; 
....................     LOSS OF USE, DATA, OR PROFITS; OR BUSINESS INTERRUPTION) HOWEVER CAUSED AND 
....................     ON ANY THEORY OF LIABILITY, WHETHER IN CONTRACT, STRICT LIABILITY, OR TORT 
....................     (INCLUDING NEGLIGENCE OR OTHERWISE) ARISING IN ANY WAY OUT OF THE USE OF THIS 
....................     SOFTWARE, EVEN IF ADVISED OF THE POSSIBILITY OF SUCH DAMAGE.ty 
.................... */ 
.................... /**************************************************************************/ 
....................  
.................... #include </I2C_Engine.h> 
.................... /**************************************************************************/ 
.................... /*!  
....................     @file     i2c_engine.h 
....................     @author   D. Bankowski (d.bankowski@gmail.com) 
....................      
....................     @brief    Driver for i2c master. 
....................     @section LICENSE 
....................     Software License Agreement (BSD License) 
....................     Copyright (c) 2017, D. Bankowski 
....................     All rights reserved. 
....................     Redistribution and use in source and binary forms, with or without 
....................     modification, are permitted provided that the following conditions are met: 
....................     1. Redistributions of source code must retain the above copyright 
....................     notice, this list of conditions and the following disclaimer. 
....................     2. Redistributions in binary form must reproduce the above copyright 
....................     notice, this list of conditions and the following disclaimer in the 
....................     documentation and/or other materials provided with the distribution. 
....................     3. Neither the name of the copyright holders nor the 
....................     names of its contributors may be used to endorse or promote products 
....................     derived from this software without specific prior written permission. 
....................     THIS SOFTWARE IS PROVIDED BY THE COPYRIGHT HOLDERS ''AS IS'' AND ANY 
....................     EXPRESS OR IMPLIED WARRANTIES, INCLUDING, BUT NOT LIMITED TO, THE IMPLIED 
....................     WARRANTIES OF MERCHANTABILITY AND FITNESS FOR A PARTICULAR PURPOSE ARE 
....................     DISCLAIMED. IN NO EVENT SHALL THE COPYRIGHT HOLDER BE LIABLE FOR ANY 
....................     DIRECT, INDIRECT, INCIDENTAL, SPECIAL, EXEMPLARY, OR CONSEQUENTIAL DAMAGES 
....................     (INCLUDING, BUT NOT LIMITED TO, PROCUREMENT OF SUBSTITUTE GOODS OR SERVICES; 
....................     LOSS OF USE, DATA, OR PROFITS; OR BUSINESS INTERRUPTION) HOWEVER CAUSED AND 
....................     ON ANY THEORY OF LIABILITY, WHETHER IN CONTRACT, STRICT LIABILITY, OR TORT 
....................     (INCLUDING NEGLIGENCE OR OTHERWISE) ARISING IN ANY WAY OUT OF THE USE OF THIS 
....................     SOFTWARE, EVEN IF ADVISED OF THE POSSIBILITY OF SUCH DAMAGE. 
.................... */ 
.................... /**************************************************************************/ 
....................  
.................... #ifndef _I2C_ENGINE_ 
....................    #define _I2C_ENGINE_ 
....................  
....................    #define  I2C_DELAY_US            20  
....................    #define  I2C_INTERBYTE_DELAY_US  60 
....................    #define  READ__EEPROM            TRUE 
....................    #define  normal__I2C             FALSE 
....................     
....................    void i2cInit      (void);    
....................    void i2cEngine    (int1); 
....................  
.................... #endif 
....................  
....................  
....................  
.................... #ifndef _TRANSMISSION_BUFFERS_ 
....................    #include </MCU_include/core/transmission_buffers/transmission_buffers.c> 
.................... #include </transmission_buffers.h> 
.................... #ifndef _TRANSMISSION_BUFFERS_ 
....................    #define _TRANSMISSION_BUFFERS_ 
....................     
....................    //#define mcu_Transmission_BUFSIZE         65 
....................    //#define mcu_Reception_BUFSIZE           255 //257 by³o 257 z jakiegoœ powodu, ale UART dzia³a mi z 255 //poza tym wszêdzie s¹ tak powyliczane pêtke (na int8) 
....................     
....................    //i2c buffer size (MAX): 
....................    // device:                    TEA5767        TDA7418       HMI      EEPROM 
....................    //- write (I2CWriteLength):      6              3           15      4+2=6 
....................    //- read  (I2CReadLength):       5              0           1        4 
....................    const unsigned int16 i2c_mcu_Transmission_BUFSIZE=16; 
....................    const unsigned int16 i2c_mcu_Reception_BUFSIZE=16; //257 by³o 257 z jakiegoœ powodu, ale UART dzia³a mi z 255 //poza tym wszêdzie s¹ tak powyliczane pêtke (na int8) 
....................  
....................    unsigned int   i2c_MasterBuffer[i2c_mcu_Transmission_BUFSIZE ]; 
....................    unsigned int   i2c_SlaveBuffer[i2c_mcu_Reception_BUFSIZE]; 
....................  
.................... //   void ClearBuffers (unsigned int, short int); 
....................    void i2c_ClearMasterBuffer  (void); 
....................    void i2c_ClearSlaveBuffers  (void); 
....................     
.................... #endif 
....................  
....................  
.................... //void ClearBuffers (unsigned int *buffer, short int buffer_size) 
.................... void ClearBuffers (unsigned int *buffer, unsigned int16 buffer_size) 
....................    { 
....................       //unsigned int8 i; 
....................       unsigned int16 i; 
....................       for ( i = 0; i < buffer_size; i++ ) 
*
07FA:  CLRF   70
07FC:  CLRF   6F
07FE:  MOVF   70,W
0800:  SUBWF  6E,W
0802:  BNC   0826
0804:  BNZ   080C
0806:  MOVF   6D,W
0808:  SUBWF  6F,W
080A:  BC    0826
....................       { 
....................          *(buffer+i)= 0x00; 
080C:  MOVF   6F,W
080E:  ADDWF  6B,W
0810:  MOVWF  01
0812:  MOVF   70,W
0814:  ADDWFC 6C,W
0816:  MOVFF  01,FE9
081A:  MOVWF  FEA
081C:  CLRF   FEF
081E:  INCF   6F,F
0820:  BTFSC  FD8.2
0822:  INCF   70,F
0824:  BRA    07FE
....................       } 
0826:  RETURN 0
....................    } 
....................  
.................... void i2c_ClearMasterBuffer  (void) 
.................... { 
....................    ClearBuffers(&i2c_MasterBuffer,i2c_mcu_Transmission_BUFSIZE); 
0828:  CLRF   6C
082A:  MOVLW  1C
082C:  MOVWF  6B
082E:  CLRF   6E
0830:  MOVLW  10
0832:  MOVWF  6D
0834:  RCALL  07FA
0836:  RETURN 0
....................  
.................... } 
....................  
.................... void i2c_ClearSlaveBuffers  (void) 
.................... { 
....................    ClearBuffers(&i2c_SlaveBuffer,i2c_mcu_Reception_BUFSIZE); 
0838:  CLRF   6C
083A:  MOVLW  2C
083C:  MOVWF  6B
083E:  CLRF   6E
0840:  MOVLW  10
0842:  MOVWF  6D
0844:  RCALL  07FA
0846:  RETURN 0
.................... } 
....................  
.................... #endif 
....................  
.................... //unsigned int32 I2CReadLength; //I2C zmieniæ na  
.................... //unsigned int32 I2CWriteLength; 
.................... unsigned int16 I2CReadLength;  
.................... unsigned int16 I2CWriteLength; 
....................  
.................... void i2cInit(void) { 
....................    output_float(_I2C_SCL); 
....................    output_float(_I2C_SDA); 
.................... } 
....................  
.................... int8 __i2cDeviceStatus() { 
....................    int8 ack; 
....................    i2c_start();            // If the write command is acknowledged, 
*
0864:  BSF    FC5.0
0866:  BTFSC  FC5.0
0868:  BRA    0866
....................    delay_us(I2C_DELAY_US); 
086A:  MOVLW  21
086C:  MOVWF  00
086E:  DECFSZ 00,F
0870:  BRA    086E
....................    ack = i2c_write(i2c_MasterBuffer[0]&0xFE);  // then the device is ready. PING should be always of write address so 0xFE 0b11111110 is required on ping 
0872:  MOVF   1C,W
0874:  ANDLW  FE
0876:  MOVWF  x82
0878:  MOVWF  x83
087A:  RCALL  0848
087C:  MOVFF  01,81
....................    delay_us(I2C_DELAY_US); 
0880:  MOVLW  21
0882:  MOVWF  00
0884:  DECFSZ 00,F
0886:  BRA    0884
....................    i2c_stop(); 
0888:  BSF    FC5.2
088A:  BTFSC  FC5.2
088C:  BRA    088A
....................    delay_us(I2C_DELAY_US); 
088E:  MOVLW  21
0890:  MOVWF  00
0892:  DECFSZ 00,F
0894:  BRA    0892
....................    return ack;             // 0 means ACK, 1 means NO ACK, 2 means there was a collision if in Multi_Master Mode. This does not return an ACK if using i2c in slave mode 
0896:  MOVFF  81,01
089A:  GOTO   0ABC (RETURN)
.................... } 
....................  
.................... int8 __try_i2c_bus(void) 
*
0AA4:  MOVLW  01
0AA6:  MOVWF  7E
0AA8:  CLRF   x80
0AAA:  CLRF   7F
.................... { 
....................    int8  i2c_try=1; 
....................    unsigned int16 i2c_tryout_error = 0; 
....................    while(i2c_try!=0&&i2c_tryout_error <100) //i2c_tryout_error<100 
0AAC:  MOVF   7E,F
0AAE:  BZ    0B22
0AB0:  MOVF   x80,F
0AB2:  BNZ   0B22
0AB4:  MOVF   7F,W
0AB6:  SUBLW  63
0AB8:  BNC   0B22
....................    { 
....................       i2c_try = __i2cDeviceStatus(); 
0ABA:  BRA    0864
0ABC:  MOVFF  01,7E
....................        
....................       if (i2c_try!= 0) 
0AC0:  MOVF   7E,F
0AC2:  BZ    0B12
....................       { 
....................          dbg_printf("I2C w.addr:%x error try(s):%Lu status:%d", i2c_MasterBuffer[0], i2c_tryout_error, i2c_try); 
0AC4:  MOVLW  68
0AC6:  MOVWF  FF6
0AC8:  MOVLW  01
0ACA:  MOVWF  FF7
0ACC:  MOVLW  0B
0ACE:  MOVWF  x81
0AD0:  RCALL  089E
0AD2:  MOVFF  1C,81
0AD6:  MOVLW  57
0AD8:  MOVWF  x82
0ADA:  RCALL  08BC
0ADC:  MOVLW  75
0ADE:  MOVWF  FF6
0AE0:  MOVLW  01
0AE2:  MOVWF  FF7
0AE4:  MOVLW  0E
0AE6:  MOVWF  x81
0AE8:  RCALL  089E
0AEA:  MOVLW  10
0AEC:  MOVWF  FE9
0AEE:  MOVFF  80,82
0AF2:  MOVFF  7F,81
0AF6:  BRA    08FA
0AF8:  MOVLW  86
0AFA:  MOVWF  FF6
0AFC:  MOVLW  01
0AFE:  MOVWF  FF7
0B00:  MOVLW  08
0B02:  MOVWF  x81
0B04:  RCALL  089E
0B06:  MOVFF  7E,81
0B0A:  MOVLW  18
0B0C:  MOVWF  x82
0B0E:  RCALL  09DE
0B10:  RCALL  07EC
....................          //dbg_return_carriage(); 
....................       } 
....................       i2c_tryout_error = i2c_tryout_error +1; 
0B12:  MOVLW  01
0B14:  ADDWF  7F,F
0B16:  MOVLW  00
0B18:  ADDWFC x80,F
....................       delay_us(254); 
0B1A:  MOVLW  FE
0B1C:  MOVWF  x81
0B1E:  BRA    0A88
0B20:  BRA    0AAC
....................    } 
....................    return i2c_try; 
0B22:  MOVFF  7E,01
0B26:  GOTO   0B52 (RETURN)
.................... } 
....................  
.................... void i2cEngine(int1 eeprom_read = FALSE) //, unsigned int8 = 0) 
.................... { 
....................    disable_interrupts(GLOBAL); 
*
0B48:  BCF    FF2.6
0B4A:  BCF    FF2.7
0B4C:  BTFSC  FF2.7
0B4E:  BRA    0B4A
....................     
....................    int8  i2c_ACK=__try_i2c_bus(); 
0B50:  BRA    0AA4
0B52:  MOVFF  01,7A
....................     
....................    if (i2c_ACK==0) 
0B56:  MOVF   7A,F
0B58:  BTFSS  FD8.2
0B5A:  BRA    0C9C
....................    { 
....................    i2c_start(); 
0B5C:  BSF    FC5.0
0B5E:  BTFSC  FC5.0
0B60:  BRA    0B5E
....................    delay_us(I2C_DELAY_US); 
0B62:  MOVLW  21
0B64:  MOVWF  00
0B66:  DECFSZ 00,F
0B68:  BRA    0B66
....................     
....................     
....................     
....................    //unsigned int8 i; 
....................    unsigned int16 i; 
....................  
....................    /* 
....................    #if (I2CReadLength >mcu_Reception_BUFSIZE) 
....................       #error 'B³¹d krytyczny. Nie mo¿esz wysy³aæ wiêcej danych ni¿ pojemnoœæ SlaveBuffer[mcu_Reception_BUFSIZE]' 
....................    #endif*/ 
....................     
....................     
....................    if (I2CWriteLength>0) 
0B6A:  MOVF   3E,F
0B6C:  BNZ   0B72
0B6E:  MOVF   3F,F
0B70:  BZ    0BA6
....................    {      
....................       for(i=0;i<I2CWriteLength; i++) 
0B72:  CLRF   7C
0B74:  CLRF   7B
0B76:  MOVF   7C,W
0B78:  SUBWF  3F,W
0B7A:  BNC   0BA6
0B7C:  BNZ   0B84
0B7E:  MOVF   3E,W
0B80:  SUBWF  7B,W
0B82:  BC    0BA6
....................       { 
....................          i2c_write(i2c_MasterBuffer[i]); //write to device from buffer 
0B84:  MOVLW  1C
0B86:  ADDWF  7B,W
0B88:  MOVWF  FE9
0B8A:  MOVLW  00
0B8C:  ADDWFC 7C,W
0B8E:  MOVWF  FEA
0B90:  MOVFF  FEF,83
0B94:  RCALL  0848
....................          delay_us(I2C_DELAY_US); 
0B96:  MOVLW  21
0B98:  MOVWF  00
0B9A:  DECFSZ 00,F
0B9C:  BRA    0B9A
0B9E:  INCF   7B,F
0BA0:  BTFSC  FD8.2
0BA2:  INCF   7C,F
0BA4:  BRA    0B76
....................       } 
....................    } 
....................       if (eeprom_read == TRUE) 
0BA6:  DECFSZ 79,W
0BA8:  BRA    0BC6
....................    { 
....................       i2c_start(); 
0BAA:  BSF    FC5.1
0BAC:  BTFSC  FC5.1
0BAE:  BRA    0BAC
....................       delay_us(I2C_DELAY_US); 
0BB0:  MOVLW  21
0BB2:  MOVWF  00
0BB4:  DECFSZ 00,F
0BB6:  BRA    0BB4
....................       i2c_write(i2c_MasterBuffer[2]); 
0BB8:  MOVFF  1E,83
0BBC:  RCALL  0848
....................       delay_us(I2C_DELAY_US); 
0BBE:  MOVLW  21
0BC0:  MOVWF  00
0BC2:  DECFSZ 00,F
0BC4:  BRA    0BC2
....................    }    
....................     
....................    if (I2CReadLength > 0) 
0BC6:  MOVF   3C,F
0BC8:  BNZ   0BCE
0BCA:  MOVF   3D,F
0BCC:  BZ    0C32
....................    {   
....................       int1 state; 
....................       for(i=0;i<I2CReadLength; i++) 
0BCE:  CLRF   7C
0BD0:  CLRF   7B
0BD2:  MOVF   7C,W
0BD4:  SUBWF  3D,W
0BD6:  BNC   0C32
0BD8:  BNZ   0BE0
0BDA:  MOVF   3C,W
0BDC:  SUBWF  7B,W
0BDE:  BC    0C32
....................       {   
....................        
....................          if (i<(I2CReadLength-1)) 
0BE0:  MOVLW  01
0BE2:  SUBWF  3C,W
0BE4:  MOVWF  00
0BE6:  MOVLW  00
0BE8:  SUBWFB 3D,W
0BEA:  MOVWF  03
0BEC:  MOVFF  00,01
0BF0:  MOVF   7C,W
0BF2:  SUBWF  03,W
0BF4:  BNC   0C02
0BF6:  BNZ   0BFE
0BF8:  MOVF   01,W
0BFA:  SUBWF  7B,W
0BFC:  BC    0C02
....................             state = TRUE; 
0BFE:  BSF    7D.0
0C00:  BRA    0C04
....................          else 
....................             state = FALSE; 
0C02:  BCF    7D.0
....................          i2c_SlaveBuffer[i]=i2c_read(state); 
0C04:  MOVLW  2C
0C06:  ADDWF  7B,W
0C08:  MOVWF  FE9
0C0A:  MOVLW  00
0C0C:  ADDWFC 7C,W
0C0E:  MOVWF  FEA
0C10:  MOVLW  00
0C12:  BTFSC  7D.0
0C14:  MOVLW  01
0C16:  MOVWF  x80
0C18:  MOVWF  00
0C1A:  BRA    0B2A
0C1C:  MOVFF  01,FEF
....................          delay_us(I2C_INTERBYTE_DELAY_US); 
0C20:  MOVLW  63
0C22:  MOVWF  00
0C24:  DECFSZ 00,F
0C26:  BRA    0C24
0C28:  BRA    0C2A
0C2A:  INCF   7B,F
0C2C:  BTFSC  FD8.2
0C2E:  INCF   7C,F
0C30:  BRA    0BD2
....................       } 
....................    } 
....................    i2c_stop(); 
0C32:  BSF    FC5.2
0C34:  BTFSC  FC5.2
0C36:  BRA    0C34
....................    delay_us(I2C_DELAY_US); 
0C38:  MOVLW  21
0C3A:  MOVWF  00
0C3C:  DECFSZ 00,F
0C3E:  BRA    0C3C
....................    if (I2CReadLength == 0) 
0C40:  MOVF   3C,F
0C42:  BNZ   0C72
0C44:  MOVF   3D,F
0C46:  BNZ   0C72
....................       { 
....................          dbg_printf("I2C w.addr:%x ACK", i2c_MasterBuffer[0]); 
0C48:  MOVLW  92
0C4A:  MOVWF  FF6
0C4C:  MOVLW  01
0C4E:  MOVWF  FF7
0C50:  MOVLW  0B
0C52:  MOVWF  x81
0C54:  RCALL  089E
0C56:  MOVFF  1C,81
0C5A:  MOVLW  57
0C5C:  MOVWF  x82
0C5E:  RCALL  08BC
0C60:  MOVLW  9F
0C62:  MOVWF  FF6
0C64:  MOVLW  01
0C66:  MOVWF  FF7
0C68:  MOVLW  04
0C6A:  MOVWF  x81
0C6C:  RCALL  089E
0C6E:  RCALL  07EC
....................          //dbg_return_carriage(); 
....................       } 
0C70:  BRA    0C9A
....................    else 
....................       { 
....................          dbg_printf("I2C r.addr:%x ACK", i2c_MasterBuffer[0]); 
0C72:  MOVLW  A4
0C74:  MOVWF  FF6
0C76:  MOVLW  01
0C78:  MOVWF  FF7
0C7A:  MOVLW  0B
0C7C:  MOVWF  x81
0C7E:  RCALL  089E
0C80:  MOVFF  1C,81
0C84:  MOVLW  57
0C86:  MOVWF  x82
0C88:  RCALL  08BC
0C8A:  MOVLW  B1
0C8C:  MOVWF  FF6
0C8E:  MOVLW  01
0C90:  MOVWF  FF7
0C92:  MOVLW  04
0C94:  MOVWF  x81
0C96:  RCALL  089E
0C98:  RCALL  07EC
....................          //dbg_return_carriage(); 
....................       } 
....................    break; 
....................    } 
0C9A:  BRA    0CF8
....................    else if (i2c_ACK==1) 
0C9C:  DECFSZ 7A,W
0C9E:  BRA    0CCA
....................    { 
....................    dbg_printf("I2C addr:%x !ACK", i2c_MasterBuffer[0]); 
0CA0:  MOVLW  B6
0CA2:  MOVWF  FF6
0CA4:  MOVLW  01
0CA6:  MOVWF  FF7
0CA8:  MOVLW  09
0CAA:  MOVWF  x81
0CAC:  RCALL  089E
0CAE:  MOVFF  1C,81
0CB2:  MOVLW  57
0CB4:  MOVWF  x82
0CB6:  RCALL  08BC
0CB8:  MOVLW  C1
0CBA:  MOVWF  FF6
0CBC:  MOVLW  01
0CBE:  MOVWF  FF7
0CC0:  MOVLW  05
0CC2:  MOVWF  x81
0CC4:  RCALL  089E
0CC6:  RCALL  07EC
....................    //dbg_return_carriage(); 
....................    break; 
....................    } 
0CC8:  BRA    0CF8
....................    else if (i2c_ACK==2) 
0CCA:  MOVF   7A,W
0CCC:  SUBLW  02
0CCE:  BNZ   0CF8
....................    { 
....................    dbg_printf("I2C adr:%x COLISION", i2c_MasterBuffer[0]); 
0CD0:  MOVLW  C8
0CD2:  MOVWF  FF6
0CD4:  MOVLW  01
0CD6:  MOVWF  FF7
0CD8:  MOVLW  08
0CDA:  MOVWF  x81
0CDC:  RCALL  089E
0CDE:  MOVFF  1C,81
0CE2:  MOVLW  57
0CE4:  MOVWF  x82
0CE6:  RCALL  08BC
0CE8:  MOVLW  D2
0CEA:  MOVWF  FF6
0CEC:  MOVLW  01
0CEE:  MOVWF  FF7
0CF0:  MOVLW  09
0CF2:  MOVWF  x81
0CF4:  RCALL  089E
0CF6:  RCALL  07EC
....................    //dbg_return_carriage(); 
....................    break; 
....................    } 
....................    I2CWriteLength = 0; 
0CF8:  CLRF   3F
0CFA:  CLRF   3E
....................    I2CReadLength = 0; 
0CFC:  CLRF   3D
0CFE:  CLRF   3C
....................    enable_interrupts(GLOBAL);  
0D00:  MOVLW  C0
0D02:  IORWF  FF2,F
0D04:  RETURN 0
.................... } 
....................  
....................    #endif 
....................     
....................    #ifndef _i2c_HMI_main_ 
....................       #include </MCU_include/hardware/I2C_HMI/i2c_HMI_main.c>  
.................... #include <i2c_HMI_main.h> 
.................... #ifndef _i2c_HMI_main_ 
....................    #define _i2c_HMI_main_ 
....................    #ifndef _i2c_Slave_buffer_addresses_ 
....................       #include </HMI_MCU_common_includes/HMI_i2c_Slave_buffer_addresses/i2c_Slave_buffer_addresses.h> 
.................... #ifndef _i2c_Slave_buffer_addresses_ 
....................    #define _i2c_Slave_buffer_addresses_ 
.................... //****************************************************// 
.................... /*       i2c COMMANDS protocol and addresses          */ 
.................... //****************************************************// 
....................  
.................... // i2c protocle// 
....................      #define command_clrl_all_packs             0x0      //command - size 1/ 0x00           / 0x0             /  0x0            / 
....................      #define command_clrl_x_pack                0x1      //command - size 1/pack_no - size 1/ 0x0             /  0x0            / 
....................      #define command_set_all_packs              0x2      //command - size 1/ 0x0            /colour - size 1  /  0x0            / 
....................      #define command_set_x_pack                 0x3      //command - size 1/pack_no - size 1/colour - size 1  /  0x0            / 
....................      #define command_blink_all_packs            0x4      //command - size 1/ 0x0            /colour_1 - size 1/colour_2 - size 1/ 
....................      #define command_blink_x_pack               0x5      //command - size 1/pack_no - size 1/colour_1 - size 1/colour_2 - size 1/ 
....................      #define command_set_backlight              0x6      //command - size 1/backlight value - size 1/0x0      /  0x0            / 
....................      #define command_stepper_motor_percen       0x7      //command - size 1/percents value - size 4/  
....................      #define command_stepper_motor_abs_val      0x8      //command - size 1/min_value - size 4/ max_value - size 4/ goto value - size 4/ 
....................      //#define command_stepper_motor_rel_val      0x9 
....................      #define command_stepper_motor_calibrate    0xA 
....................      // zarezerwowane dla i2c HMI adress        0x10 
....................       
....................      #define command_address              0x00 
....................      #define pack_no_addres               0x01 
....................      #define colour_1_addres              0x02 
....................      #define colour_2_addres              0x03   
....................       
....................      #define command_len                  0x1 
....................      #define pack_no_len                  0x1 
....................      #define colour_no_len                0x1 
.................... // i2c protocle// 
....................  
.................... //****************************************************// 
.................... /*       i2c COMMANDS protocol and addresses          */ 
.................... //****************************************************// 
....................  
....................  
.................... //****************************************************// 
.................... /*                  LED i2c protocol                  */ 
.................... //****************************************************// 
....................  
.................... /* 
.................... //hardware LEDS definition - can be changed 
....................    #define LED1_GREEN   PIN_A0 
....................    #define LED1_RED     PIN_A1    
....................    #define LED1_BLUE    PIN_A2 
....................  
....................    #define LED2_GREEN   PIN_A3 
....................    #define LED2_RED     PIN_A5 
....................    #define LED2_BLUE    PIN_E0 
....................     
....................    #define LED3_GREEN   PIN_E1 
....................    #define LED3_RED     PIN_E2 
....................    #define LED3_BLUE    PIN_C0 
.................... //hardware LEDS definition - can be changed 
.................... */ 
....................         
....................    #define  unset_mask              0b10000000 
....................    #define  colour_BLUE             0b00000001 
....................    #define  colour_GREEN            0b00000010 
....................    #define  colour_RED              0b00000100 
....................    #define  colour_YELLOW           colour_RED|colour_GREEN 
....................    #define  colour_PURPLE           colour_RED|colour_BLUE 
....................    #define  colour_SKYBLUE          colour_GREEN|colour_BLUE 
....................    #define  colour_WHITE            colour_BLUE|colour_GREEN|colour_RED 
....................    #define  colour_BLACK            unset_mask|colour_WHITE 
....................     
....................    #define  unset_colour_BLUE       unset_mask|0b00000001 
....................    #define  unset_colour_GREEN      unset_mask|0b00000010 
....................    #define  unset_colour_RED        unset_mask|0b00000100 
....................    #define  unset_colour_YELLOW     unset_mask|colour_RED|colour_GREEN 
....................    #define  unset_colour_PURPLE     unset_mask|colour_RED|colour_BLUE 
....................    #define  unset_colour_SKYBLUE    unset_mask|colour_GREEN|colour_BLUE 
....................    #define  unset_colour_WHITE      unset_mask|colour_WHITE 
....................     
....................    #define  pack_1             0b00000001 
....................    #define  pack_2             0b00000010 
....................    #define  pack_3             0b00000011 
....................  
....................  
....................  
....................     
....................    #define SB_set_x_pack_no_address                0x01 
....................    #define SB_set_x_pack_no_len                    0x01 
....................    #define SB_set_x_pack_Val_address               0x02    
....................    #define SB_set_x_pack_Val_len                   0x01     
....................     
....................     
....................    #define set_1st_pack                            0x1 
....................    #define set_2nd_pack                            0x2 
....................    #define set_3rd_pack                            0x3    
....................     
....................    #define SB_set_all_leds_address                 0x01 
....................    #define SB_set_all_leds_len                     0x01 
....................     
....................    #define SB_set_led_number_address               0x01 
....................    #define SB_set_led_number_len                   0x01    
....................     
....................    #define SB_set_led_Val_address                  0x02 
....................    #define SB_set_led_Val_len                      0x01 
....................        
....................    #define SB_set_motor__percent_Val_address       0x01 
....................    #define SB_set_motor__percent_len               0x04 
....................     
....................    #define SB_set_abs_val_Val_address              0x01 
....................    #define SB_set_abs_val_len                      0x04 
....................     
....................    #define SB_set_motor_rel_val_min_Val_address    0x01 
....................    #define SB_set_motor_rel_val_min_len            0x04 
....................     
....................    #define SB_set_motor_rel_val_curr_Val_address   0x05 
....................    #define SB_set_motor_rel_val_curr_len           0x04 
....................     
....................    #define SB_set_motor_rel_val_max_Val_address    0x09 
....................    #define SB_sets_motor_rel_val_curr_len          0x04 
....................     
....................    #define SB_set_backlight_Val_address            0x01 
....................    #define SB_set_backlight_len                    0x01 
.................... //****************************************************// 
.................... /*                  LED i2c protocol                  */ 
.................... //****************************************************// 
....................  
....................  
.................... //****************************************************// 
.................... /*        BACKLIGHTY i2c protocol addresses           */ 
.................... //****************************************************// 
....................    #define SBL_Val_address               0x01    
....................    #define SBL_Val_address_len           0x01     
....................  
.................... //****************************************************// 
.................... /*        BACKLIGHTY i2c protocol addresses           */ 
.................... //****************************************************// 
....................  
....................  
.................... //****************************************************// 
.................... /*      STEPPER MOTOR i2c protocol addresses          */ 
.................... //****************************************************// 
....................    #define  STP_MOTTOR_percentage_addres  0x01 
....................    #define  STP_MOTTOR_percentage_len     0x04 
....................     
....................    #define STP_MOTTOR_min_range_address   0x01 
....................    #define STP_MOTTOR_min_range_len       0x04 
....................    #define STP_MOTTOR_max_range_address   0x05 
....................    #define STP_MOTTOR_max_range_len       0x04 
....................    #define STP_MOTTOR_goto_address        0x09 
....................    #define STP_MOTTOR_goto_len            0x04 
....................  
.................... //****************************************************// 
.................... /*      STEPPER MOTOR i2c protocol addresses          */ 
.................... //****************************************************// 
....................  
.................... //****************************************************// 
.................... /*      ACTIVE ANTENA i2c protocol addresses          */ 
.................... //****************************************************// 
....................  
....................    #define  IS_FM_ANT_ACTIVE_bit       0b00000001 
....................    #define  IS_DAB_ANT_ACTIVE_bit      0b00000010 
....................    #define  IS_FM_DAB_CONVERTER_bit    0b00000100 
....................  
....................  
.................... //****************************************************// 
.................... /*      ACTIVE ANTENA i2c protocol addresses          */ 
.................... //****************************************************// 
....................  
....................  
....................  
....................  
.................... #endif 
....................  
....................  
....................  
....................       #include </HMI_MCU_common_includes/HMI_i2c_slave_address/i2c_slave_address.h>   
.................... #define i2c_slave_address        0x10 
.................... #define i2c_slave_fake_address   0x12 
....................  
.................... #define i2c_slave_ready()            I2C_SlaveAddr(i2c_slave_address)            //ustawia w³aœciwy adres slave, wtedy master otrzymuje ACK = 0 czyli ok 
.................... #define i2c_slave_not_ready()        I2C_SlaveAddr(i2c_slave_fake_address)       //ustawia fa³szywy adres slave (jak ¿adnego innego urz¹dzenia w uk³adzie), wtedy master nie otrzymuje ¿adnego ACK 
....................  
....................  
....................        
....................    #endif 
.................... #ifndef _I2C_ENGINE_ 
....................    #include </MCU_include/core/I2C_Engine/I2C_Engine.c> 
.................... #endif 
....................  
.................... #define HMI_software_delay_ms    5     //delay required to HMI compute last data 
....................  
.................... void _HMI_i2cWriteExecute(void); 
.................... void _HMI_i2cWritePrepare (int8); 
.................... //void _HMI_i2cReadPrepare (void); 
.................... //void _HMI_i2cReadExecute (void); 
....................  
.................... #endif 
....................     
....................     
....................     
....................     
....................     
....................  
....................  
....................  
.................... #define i2c_HMI_LEDS_w_command_len           5 
.................... #define i2c_HMI_BACKLIGHT_w_command_len      3 
.................... #define i2c_HMI_STEPPER_MOTOR_w_command_len  0 
....................  
.................... void _HMI_i2cWritePrepare (void) 
.................... { 
.................... /* Prepare Transmission buffer to transmission*/ 
....................    //ClearBuffers(&MasterBuffer,I2C_BUFSIZE); 
....................    *(i2c_MasterBuffer) = i2c_slave_address; 
*
0FBE:  CLRF   03
0FC0:  MOVLW  1C
0FC2:  MOVWF  FE9
0FC4:  MOVFF  03,FEA
0FC8:  MOVLW  10
0FCA:  MOVWF  FEF
0FCC:  RETURN 0
.................... } 
....................  
.................... void _HMI_i2cWriteExecute(int8 _I2CWriteLength) 
.................... { 
.................... /* I2Cengine write parameters setup */ 
....................    I2CWriteLength = _I2CWriteLength; //i2cEngine write information 
0FCE:  CLRF   3F
0FD0:  MOVFF  78,3E
....................    I2CReadLength = 0;  //i2cEngine read information 
0FD4:  CLRF   3D
0FD6:  CLRF   3C
....................    i2cEngine(normal__I2C);        //write or read data  depend of I2CWriteLength and I2CReadLength 
0FD8:  CLRF   79
0FDA:  RCALL  0B48
0FDC:  RETURN 0
....................    //delay_ms(HMI_software_delay_ms);     //wait to execute command 
.................... } 
....................  
....................  
.................... /*void _HMI_i2cReadPrepare (void) 
.................... { 
....................    *(MasterBuffer) = i2c_slave_address+1; 
.................... } 
....................  
.................... void _HMI_i2cReadExecute(void) 
.................... { 
.................... // I2Cengine write parameters setup 
....................    I2CWriteLength = 1; //i2cEngine write information 
....................    I2CReadLength = 2;  //i2cEngine read information 
....................    i2cEngine(normal__I2C);        //write or read data  depend of I2CWriteLength and I2CReadLength 
.................... }*/ 
....................  
....................  
....................    #endif 
....................     
.................... void STEPPER_MOTOR_send_percentage(float percents); 
.................... void STEPPER_MOTOR_send_absolut(int32, int32, int32); 
....................  
.................... #endif 
....................  
....................  
.................... void STEPPER_MOTOR_send_percentage(float percents) 
.................... { 
....................    //float a = percents; 
....................    //_HMI_i2cWritePrepare(); 
....................    //ClearBuffers(&MasterBuffer,I2C_BUFSIZE); 
....................    i2c_ClearMasterBuffer(); 
....................     
....................    *(i2c_MasterBuffer) = i2c_slave_address; 
....................    i2c_MasterBuffer[1] = command_stepper_motor_percen; 
....................    memcpy (i2c_MasterBuffer+1+command_address+command_len, &percents, STP_MOTTOR_percentage_len); 
....................    I2CWriteLength = 6; //i2cEngine write information 
....................    I2CReadLength = 0;  //i2cEngine read information 
....................    i2cEngine(normal__I2C);        //write or read data  depend of I2CWriteLength and I2CReadLength 
....................    delay_ms(2 * HMI_software_delay_ms);         //additional wait to execute command, this command takes time 
.................... } 
....................  
.................... void STEPPER_MOTOR_send_absolut(int32 min_range, int32 max_range, int32 goto_value) 
.................... { 
....................    //ClearBuffers(&MasterBuffer,I2C_BUFSIZE); 
....................    i2c_ClearMasterBuffer(); 
....................    *(i2c_MasterBuffer) = i2c_slave_address; 
....................    i2c_MasterBuffer[1] = command_stepper_motor_abs_val; 
....................    memcpy (i2c_MasterBuffer+1+command_address+command_len, &min_range, STP_MOTTOR_min_range_len); 
....................    memcpy (i2c_MasterBuffer+1+command_address+command_len+STP_MOTTOR_min_range_len, &max_range, STP_MOTTOR_max_range_len); 
....................    memcpy (i2c_MasterBuffer+1+command_address+command_len+STP_MOTTOR_min_range_len+STP_MOTTOR_max_range_len, &goto_value, STP_MOTTOR_goto_len);    
....................    I2CWriteLength = 15; //i2cEngine write information 
....................    I2CReadLength = 0;  //i2cEngine read information 
....................    i2cEngine(normal__I2C);        //write or read data  depend of I2CWriteLength and I2CReadLength 
....................    //delay_ms(2 * HMI_software_delay_ms); //additional wait to execute command, this command takes time 
.................... } 
....................  
.................... #endif 
....................  
.................... #ifndef __timeout__ 
....................    #include</MCU_include/core/timer/timeout.c> 
.................... //#ifndef __timeout__ 
.................... //#define __timeout__ 
.................... #include<timeout.h> 
.................... #ifndef __timeout__ 
....................    #define __timeout__ 
....................  
....................  
....................    #define timeout_time_in_seconds 10 
....................     
....................    unsigned int timer_overflow_counter; 
....................    int1 timeout_occured; 
....................     
....................    void init_timeout(void);                              //should be executed at the begining 
....................    #define run_timer() enable_interrupts(INT_TIMER1)     //starts timer - enabling the interrupts    
....................    void clear_timer(void);                               //stops timer - disabling the interrupts clear variables 
....................    int1 set_timer(unsigned int);                         //set timer for X seconds - return 1 if time passed 
....................    int1 check_timeout(void);                             //check if timeout occured (timeout_occured == 1) if YES return "1" and set timeout_occured to 0 
....................   
.................... #endif 
....................  
....................  
....................  
....................  
....................  
.................... //   /*Timer interrupt function*/ 
.................... //   #ifndef __timer_inetrrupt__ 
.................... //      #define __timer_inetrrupt__ 
.................... //      #INT_TIMER1 
.................... //      void  TIMER1_isr(void) 
.................... //      { 
.................... //         disable_interrupts(INT_EXT); 
.................... //         timer_overflow_counter ++; 
.................... //         timeout_occured = set_timer(timeout_time_in_seconds); 
.................... //         enable_interrupts(INT_EXT); 
.................... //      } 
.................... //   #endif 
.................... //   /*Timer interrupt function*/ 
....................  
....................  
.................... void init_timeout(void) 
....................     { 
....................     timer_overflow_counter = 0; 
*
0FB2:  CLRF   40
....................     timeout_occured = 0; 
0FB4:  BCF    1B.1
....................     setup_timer_1(T1_INTERNAL|T1_DIV_BY_8);      //104 ms overflow 
0FB6:  MOVLW  B5
0FB8:  MOVWF  FCD
0FBA:  GOTO   212E (RETURN)
....................     } 
.................... #define overflow_time 104 
....................  
.................... void clear_timer(void) 
....................     { 
....................     disable_interrupts(INT_TIMER1); 
*
107E:  BCF    F9D.0
....................     timer_overflow_counter = 0; 
1080:  CLRF   40
1082:  RETURN 0
....................     //timeout_occured = 0; 
....................     } 
....................  
.................... int1 set_timer(unsigned int time_seconds) 
....................     { 
....................  
....................     if (timer_overflow_counter > ((unsigned int) (time_seconds*1000/overflow_time))) 
*
04E2:  CLRF   x8D
04E4:  MOVFF  8B,8C
04E8:  MOVLW  03
04EA:  MOVWF  x8F
04EC:  MOVLW  E8
04EE:  MOVWF  x8E
04F0:  BRA    047E
04F2:  MOVFF  02,8D
04F6:  MOVFF  01,8C
04FA:  MOVFF  02,8F
04FE:  MOVFF  01,8E
0502:  CLRF   x91
0504:  MOVLW  68
0506:  MOVWF  x90
0508:  BRA    049E
050A:  MOVF   01,W
050C:  SUBWF  40,W
050E:  BZ    051C
0510:  BNC   051C
....................         { 
....................         timeout_occured = 1; 
0512:  BSF    1B.1
....................         return 1; 
0514:  MOVLW  01
0516:  MOVWF  01
0518:  BRA    0520
....................         } 
051A:  BRA    0520
....................     else 
....................         { 
....................         return 0; 
051C:  MOVLW  00
051E:  MOVWF  01
....................         } 
0520:  GOTO   052E (RETURN)
....................  
....................     } 
....................  
.................... int1 check_timeout(void) 
....................     { 
....................     if (timeout_occured == 1) 
*
106C:  BTFSS  1B.1
106E:  BRA    1078
....................         { 
....................         return 1; 
1070:  MOVLW  01
1072:  MOVWF  01
1074:  BRA    107C
....................         } 
1076:  BRA    107C
....................     else 
....................         { 
....................         return 0; 
1078:  MOVLW  00
107A:  MOVWF  01
....................         } 
107C:  RETURN 0
....................     } 
.................... //#endif 
....................  
....................  
....................  
.................... #endif 
....................  
.................... int1 Active_FM_antena_hardware_setup; 
.................... int1 Active_DAB_antena_hardware_setup; 
.................... int1 Active_converter_antena_hardware_setup; 
....................  
.................... signed int8    EQU_use_active_antena_val;        
.................... signed int8    EQU_Backlight_value; 
....................  
.................... signed int8    EQU_VOL_value; 
.................... signed int8    EQU_Treble_value; 
.................... signed int8    EQU_Middle_value; 
.................... signed int8    EQU_Bass_value; 
.................... signed int8    EQU_L_H_Boost_value; 
.................... signed int8    EQU_Left_Right_value; 
.................... signed int8    EQU_Front_Rear_value; 
....................  
....................  #ifdef _USE_BACKLIGHT_ 
....................    #ifndef _i2c_HMI_BACKLIGHT_ 
....................       #include </MCU_include/hardware/I2C_HMI/i2c_HMI_BACKLIGHT/i2c_HMI_BACKLIGHT.c>       
.................... #include <i2c_HMI_BACKLIGHT.h> 
.................... #ifndef _i2c_HMI_BACKLIGHT_ 
....................    #define _i2c_HMI_BACKLIGHT_ 
.................... /*   #ifndef _i2c_Slave_buffer_addresses_ 
....................       #include </HMI_MCU_common_includes/HMI_i2c_Slave_buffer_addresses/i2c_Slave_buffer_addresses.h> 
....................       #include </HMI_MCU_common_includes/HMI_i2c_slave_address/i2c_slave_address.h>   
....................    #endif*/ 
.................... #ifndef _I2C_ENGINE_ 
....................    #include </MCU_include/core/I2C_Engine/I2C_Engine.c> 
.................... #endif 
....................     
.................... #ifndef _i2c_HMI_main_ 
....................    #include </MCU_include/hardware/I2C_HMI/i2c_HMI_main.c>  
.................... #endif 
....................  
....................    void set_backlight(int8); 
....................  
.................... #endif 
....................     
....................     
....................     
....................     
....................     
....................  
....................  
....................  
.................... void set_backlight(int8 value) 
.................... { 
....................    dbg_printf("Ta linijka powinna byc wykasowana\r\n"); 
*
0FEC:  MOVLW  DC
0FEE:  MOVWF  FF6
0FF0:  MOVLW  01
0FF2:  MOVWF  FF7
0FF4:  CALL   07CC
0FF8:  CALL   07EC
....................    dbg_printf("Set backlight %d",value); 
0FFC:  MOVLW  00
0FFE:  MOVWF  FF6
1000:  MOVLW  02
1002:  MOVWF  FF7
1004:  MOVLW  0E
1006:  MOVWF  x81
1008:  RCALL  089E
100A:  MOVFF  6B,81
100E:  MOVLW  18
1010:  MOVWF  x82
1012:  RCALL  09DE
1014:  CALL   07EC
....................    //dbg_return_carriage(); 
....................    _HMI_i2cWritePrepare(); 
1018:  RCALL  0FBE
....................    //*(MasterBuffer) = i2c_slave_address; 
....................    i2c_MasterBuffer[1] = command_set_backlight; 
101A:  MOVLW  06
101C:  MOVWF  1D
....................    i2c_MasterBuffer[2] = value; 
101E:  MOVFF  6B,1E
....................    _HMI_i2cWriteExecute(i2c_HMI_BACKLIGHT_w_command_len); 
1022:  MOVLW  03
1024:  MOVWF  78
1026:  RCALL  0FCE
1028:  RETURN 0
....................  
....................    //delay_ms(30); 
....................    /* 
....................    I2CWriteLength = 3; //i2cEngine write information 
....................    I2CReadLength = 0;  //i2cEngine read information 
....................    i2cEngine(normal__I2C);        //write or read data  depend of I2CWriteLength and I2CReadLength 
....................    */ 
.................... } 
....................  
....................    #endif 
.................... #endif    
....................  
.................... #ifndef __EEPROM_MODULE_ 
....................    #include </MCU_include/modules/eeprom_module/eeprom_module.c> 
.................... #include </eeprom_module.h> 
.................... #ifndef __EEPROM_MODULE_ 
....................    #define __EEPROM_MODULE_ 
....................     
....................    #ifndef __EEPROM_2416_ 
....................       #include </MCU_include/hardware/EEPROM_2416/EEPROM_2416.c> 
.................... #include </EEPROM_2416.h> 
....................  
.................... #ifndef __EEPROM_2416_ 
....................    #define __EEPROM_2416_ 
....................  
.................... /*#ifndef __EEPROM_ADDRESS_MAP_ 
....................    #define __EEPROM_ADDRESS_MAP_ 
....................    #include </MCU_include/core/EEPROM_2416/eeprom_address_map.h.h> 
.................... #endif*/ 
....................  
.................... #ifndef _I2C_ENGINE_ 
....................    #include </MCU_include/core/I2C_Engine/I2C_Engine.c> 
.................... #endif 
....................  
.................... #define EEPROM_I2C_WRITE_ADDRESS 0xa0     
.................... #define EEPROM_ADDRESS           unsigned int16 
.................... #define EEPROM_SIZE              1024 
....................  
....................  
....................  
.................... //void write_ext_eeprom(EEPROM_ADDRESS, BYTE, unsigned int16 ); 
.................... void write_ext_eeprom(EEPROM_ADDRESS, void *, EEPROM_ADDRESS); 
.................... //BYTE read_ext_eeprom(EEPROM_ADDRESS); 
.................... void read_ext_eeprom(EEPROM_ADDRESS address, void *, EEPROM_ADDRESS); 
.................... //#define pic_eeprom 
.................... //#define external_eeprom_24C16 //TO DO 
.................... //#define max_buffer_size 5 
.................... //#define eeprom_write_delay 50 
.................... void eeprom_erease(void); 
.................... #endif 
....................  
....................  
.................... void write_ext_eeprom(EEPROM_ADDRESS address, void *data, unsigned int16 _size_of_data) { 
....................    //ClearBuffers(&MasterBuffer,I2C_BUFSIZE); 
....................    i2c_ClearMasterBuffer(); 
*
0D36:  RCALL  0828
....................    i2c_MasterBuffer[0]   =  (EEPROM_I2C_WRITE_ADDRESS|(BYTE)(address>>7))&0xfe; 
0D38:  RRCF   66,W
0D3A:  MOVWF  03
0D3C:  RRCF   65,W
0D3E:  MOVWF  02
0D40:  RRCF   03,F
0D42:  RRCF   02,F
0D44:  RRCF   03,F
0D46:  RRCF   02,F
0D48:  RRCF   03,F
0D4A:  RRCF   02,F
0D4C:  RRCF   03,F
0D4E:  RRCF   02,F
0D50:  RRCF   03,F
0D52:  RRCF   02,F
0D54:  RRCF   03,F
0D56:  RRCF   02,F
0D58:  MOVLW  01
0D5A:  ANDWF  03,F
0D5C:  MOVF   02,W
0D5E:  IORLW  A0
0D60:  ANDLW  FE
0D62:  MOVWF  1C
....................    i2c_MasterBuffer[1]   =  address; 
0D64:  MOVFF  65,1D
....................    memcpy(&i2c_MasterBuffer+2, data, _size_of_data); 
0D68:  CLRF   FEA
0D6A:  MOVLW  1E
0D6C:  MOVWF  FE9
0D6E:  MOVFF  68,FE2
0D72:  MOVFF  67,FE1
0D76:  MOVFF  6A,02
0D7A:  MOVFF  69,01
0D7E:  MOVF   01,F
0D80:  BZ    0D86
0D82:  INCF   02,F
0D84:  BRA    0D8A
0D86:  MOVF   02,F
0D88:  BZ    0D96
0D8A:  MOVFF  FE6,FEE
0D8E:  DECFSZ 01,F
0D90:  BRA    0D8A
0D92:  DECFSZ 02,F
0D94:  BRA    0D8A
....................    I2CWriteLength = 2+_size_of_data; 
0D96:  MOVLW  02
0D98:  ADDWF  69,W
0D9A:  MOVWF  3E
0D9C:  MOVLW  00
0D9E:  ADDWFC 6A,W
0DA0:  MOVWF  3F
....................    I2CReadLength = 0; 
0DA2:  CLRF   3D
0DA4:  CLRF   3C
....................    i2cEngine(normal__I2C); 
0DA6:  CLRF   79
0DA8:  RCALL  0B48
0DAA:  RETURN 0
.................... } 
....................  
.................... void read_ext_eeprom(EEPROM_ADDRESS address, void *data, EEPROM_ADDRESS _size_of_data) { 
....................    //ClearBuffers(&MasterBuffer,I2C_BUFSIZE); 
....................    i2c_ClearMasterBuffer(); 
*
0DE2:  RCALL  0828
....................    //ClearBuffers(&SlaveBuffer,I2C_BUFSIZE); 
....................    i2c_ClearSlaveBuffers(); 
0DE4:  RCALL  0838
....................    i2c_MasterBuffer[0]   = ((EEPROM_I2C_WRITE_ADDRESS|(BYTE)(address>>7))&0xfe); 
0DE6:  RRCF   63,W
0DE8:  MOVWF  03
0DEA:  RRCF   62,W
0DEC:  MOVWF  02
0DEE:  RRCF   03,F
0DF0:  RRCF   02,F
0DF2:  RRCF   03,F
0DF4:  RRCF   02,F
0DF6:  RRCF   03,F
0DF8:  RRCF   02,F
0DFA:  RRCF   03,F
0DFC:  RRCF   02,F
0DFE:  RRCF   03,F
0E00:  RRCF   02,F
0E02:  RRCF   03,F
0E04:  RRCF   02,F
0E06:  MOVLW  01
0E08:  ANDWF  03,F
0E0A:  MOVF   02,W
0E0C:  IORLW  A0
0E0E:  ANDLW  FE
0E10:  MOVWF  1C
....................    i2c_MasterBuffer[1]   = (address); 
0E12:  MOVFF  62,1D
....................    i2c_MasterBuffer[2]   = ((EEPROM_I2C_WRITE_ADDRESS|(BYTE)(address>>7))|1); 
0E16:  RRCF   63,W
0E18:  MOVWF  03
0E1A:  RRCF   62,W
0E1C:  MOVWF  02
0E1E:  RRCF   03,F
0E20:  RRCF   02,F
0E22:  RRCF   03,F
0E24:  RRCF   02,F
0E26:  RRCF   03,F
0E28:  RRCF   02,F
0E2A:  RRCF   03,F
0E2C:  RRCF   02,F
0E2E:  RRCF   03,F
0E30:  RRCF   02,F
0E32:  RRCF   03,F
0E34:  RRCF   02,F
0E36:  MOVLW  01
0E38:  ANDWF  03,F
0E3A:  MOVF   02,W
0E3C:  IORLW  A0
0E3E:  IORLW  01
0E40:  MOVWF  1E
....................    I2CWriteLength = 3; 
0E42:  CLRF   3F
0E44:  MOVLW  03
0E46:  MOVWF  3E
....................    I2CReadLength = _size_of_data; 
0E48:  MOVFF  67,3D
0E4C:  MOVFF  66,3C
....................    i2cEngine(READ__EEPROM); 
0E50:  MOVLW  01
0E52:  MOVWF  79
0E54:  RCALL  0B48
....................    memcpy(data, &i2c_SlaveBuffer, _size_of_data); 
0E56:  MOVFF  65,FEA
0E5A:  MOVFF  64,FE9
0E5E:  CLRF   FE2
0E60:  MOVLW  2C
0E62:  MOVWF  FE1
0E64:  MOVFF  67,02
0E68:  MOVFF  66,01
0E6C:  MOVF   01,F
0E6E:  BZ    0E74
0E70:  INCF   02,F
0E72:  BRA    0E78
0E74:  MOVF   02,F
0E76:  BZ    0E84
0E78:  MOVFF  FE6,FEE
0E7C:  DECFSZ 01,F
0E7E:  BRA    0E78
0E80:  DECFSZ 02,F
0E82:  BRA    0E78
0E84:  RETURN 0
.................... } 
....................  
.................... void eeprom_erease(void){ 
*
0DAC:  SETF   62
....................  
....................    int8 erease_data = 0xff; 
....................     
....................    for (EEPROM_ADDRESS i =0 ; i<= EEPROM_SIZE; i++) 
0DAE:  CLRF   64
0DB0:  CLRF   63
0DB2:  MOVF   64,W
0DB4:  SUBLW  04
0DB6:  BNC   0DDE
0DB8:  BNZ   0DC0
0DBA:  MOVF   63,W
0DBC:  SUBLW  00
0DBE:  BNC   0DDE
....................       { 
....................       write_ext_eeprom(i, &erease_data, 1); 
0DC0:  MOVFF  64,66
0DC4:  MOVFF  63,65
0DC8:  CLRF   68
0DCA:  MOVLW  62
0DCC:  MOVWF  67
0DCE:  CLRF   6A
0DD0:  MOVLW  01
0DD2:  MOVWF  69
0DD4:  RCALL  0D36
0DD6:  INCF   63,F
0DD8:  BTFSC  FD8.2
0DDA:  INCF   64,F
0DDC:  BRA    0DB2
....................       } 
0DDE:  GOTO   1BF6 (RETURN)
.................... } 
....................  
....................    #endif 
....................     
....................    #ifndef __EEPROM_MAP_ 
....................       #include </MCU_include/hardware/EEPROM_MAP/eeprom_map.h> 
.................... #ifndef __EEPROM_MAP_ 
....................    #define __EEPROM_MAP_ 
....................     
....................  
....................    #define  RADIO_1st_run_addr   0x00     //value: 0 - 1; 
....................    #define  RADIO_1st_run_len    0x1 
....................  
....................    #define  RADIO_Input_addr     0x01     //val: 0 - 7; 
....................    #define  RADIO_Input_len      0x1    
....................  
....................    #define  Active_Antena_addr   0x02     //val: 0 - 1; 
....................    #define  Active_Antena_len    0x1 
....................  
....................    #define  FM_freuency_addr     0x03     //dla Japonii 76 000 000 - 91 000 000 (Hz) plus TV audio at 108 000 000 (Hz) dla USA / EURPOE 87 500 000 Hz - 108 000 000 Hz 
....................    #define  FM_freuency_len      0x4 
....................  
....................    #define  EQU_Vol_addr         0x07     //val: 0 - 40 
....................    #define  EUQ_Vol_len          0x1 
....................       
....................    #define  EQU_Treble_addr      0x08     //val: 0 - 31 
....................    #define  EQU_Treble_len       0x1 
....................     
....................    #define  EQU_Middle_addr      0x09     //val: 0 - 31 
....................    #define  EQU_Middle_len       0x1 
....................     
....................    #define  EQU_Bass_addr        0x0A     //val: 0 - 31 
....................    #define  EQU_Bass_len         0x1 
....................     
....................    #define  EQU_L_H_Boost_addr   0x0B     //value: 0 - 1; 
....................    #define  EQU_L_H_Boost_len    0x1 
....................     
....................    #define  EQU_Left_Right_addr  0x0C     //value: 0 - 40; 
....................    #define  EQU_Left_Right_len   0x1 
....................     
....................    #define  EQU_Front_Rear_addr  0x0D     //value: 0 - 40; 
....................    #define  EQU_Front_Rear_len   0x1 
....................       
....................    #define  Backlight_addr       0x0E     //value: 0 - 63; 
....................    #define  Backlight_len        0x1 
....................     
....................    // 0x0F wolne 
....................     
....................    #define  AM_freuency_addr     0x10     //dla EUROPY 522 000 - 1 611 000 (Hz) dla USA 522 000 Hz - 1 710 000 Hz 
....................    #define  AM_freuency_len      0x4 
....................     
....................     
....................       
.................... //   #define  DAB_freuency_addr 
.................... //   #define  DAB_freuency_len 
....................     
.................... //   #define  Backlight_addr 
.................... //   #define  Backlight_len    
....................     
....................     
....................     
....................    
.................... #endif 
....................  
....................  
....................    #endif 
....................  
....................    void check_read_value_int8(signed int8 , signed int8 , signed int8 , signed int8 ); 
....................    void check_read_value_int32(signed int32, signed int32, signed int32, signed int32); 
....................    void check_temp_value_int8(signed int8, signed int8, signed int8); 
....................    void read_and_check_value_int8 (EEPROM_ADDRESS, void *, EEPROM_ADDRESS , int8 , int8 , int8 ); 
....................    void read_and_check_value_int32(EEPROM_ADDRESS, void *, EEPROM_ADDRESS , int32, int32, int32); 
.................... #endif 
....................  
....................  
.................... // funkcja sprawdzajaca wartosci odczytane i zwracajaca default jesli b³¹d i piszaca o b³êdzie jeœli by³ b³¹d 
....................  
.................... // funkcja sprawdzaj¹ca do zapisu ?? 
....................  
....................  
.................... void check_read_value_int8(signed int8 *readen_val, signed int8  min_val, signed int8  max_val, signed int8  default_val) 
.................... { 
....................    if ((*readen_val<min_val) || (*readen_val>max_val)) 
*
0E86:  MOVFF  65,03
0E8A:  MOVFF  64,FE9
0E8E:  MOVFF  65,FEA
0E92:  MOVF   FEF,W
0E94:  XORLW  80
0E96:  MOVWF  00
0E98:  MOVF   66,W
0E9A:  XORLW  80
0E9C:  SUBWF  00,W
0E9E:  BNC   0EBA
0EA0:  MOVFF  65,03
0EA4:  MOVFF  64,FE9
0EA8:  MOVFF  65,FEA
0EAC:  MOVF   67,W
0EAE:  XORLW  80
0EB0:  MOVWF  00
0EB2:  MOVF   FEF,W
0EB4:  XORLW  80
0EB6:  SUBWF  00,W
0EB8:  BC    0EE0
....................    { 
....................    //dbg_printf("EEPROM parameter error.EEPROM is damaged? Adress %x ", address); 
....................    dbg_printf("EEPROM is damaged?"); 
0EBA:  MOVLW  12
0EBC:  MOVWF  FF6
0EBE:  MOVLW  02
0EC0:  MOVWF  FF7
0EC2:  RCALL  07CC
0EC4:  RCALL  07EC
....................    //dbg_return_carriage(); 
....................    *readen_val = default_val; 
0EC6:  MOVFF  64,FE9
0ECA:  MOVFF  65,FEA
0ECE:  MOVFF  68,FEF
....................    delay_ms(2000); 
0ED2:  MOVLW  08
0ED4:  MOVWF  69
0ED6:  MOVLW  FA
0ED8:  MOVWF  76
0EDA:  RCALL  0766
0EDC:  DECFSZ 69,F
0EDE:  BRA    0ED6
....................    } 
0EE0:  RETURN 0
.................... } 
....................  
....................  
.................... void check_read_value_int32(signed int32 *readen_val, signed int32 min_val, signed int32 max_val, signed int32 default_val) 
.................... { 
....................    if ((*readen_val<min_val) || (*readen_val>max_val)) 
0EE2:  MOVFF  65,03
0EE6:  MOVFF  64,FE9
0EEA:  MOVFF  65,FEA
0EEE:  MOVFF  FEF,72
0EF2:  MOVFF  FEC,73
0EF6:  MOVFF  FEC,74
0EFA:  MOVFF  FEC,75
0EFE:  BTFSS  75.7
0F00:  BRA    0F08
0F02:  BTFSS  69.7
0F04:  BRA    0F72
0F06:  BRA    0F0C
0F08:  BTFSC  69.7
0F0A:  BRA    0F2A
0F0C:  MOVF   75,W
0F0E:  SUBWF  69,W
0F10:  BNC   0F2A
0F12:  BNZ   0F72
0F14:  MOVF   74,W
0F16:  SUBWF  68,W
0F18:  BNC   0F2A
0F1A:  BNZ   0F72
0F1C:  MOVF   73,W
0F1E:  SUBWF  67,W
0F20:  BNC   0F2A
0F22:  BNZ   0F72
0F24:  MOVF   66,W
0F26:  SUBWF  72,W
0F28:  BNC   0F72
0F2A:  MOVFF  65,03
0F2E:  MOVFF  64,FE9
0F32:  MOVFF  65,FEA
0F36:  MOVFF  FEF,72
0F3A:  MOVFF  FEC,73
0F3E:  MOVFF  FEC,74
0F42:  MOVFF  FEC,75
0F46:  BTFSS  6D.7
0F48:  BRA    0F50
0F4A:  BTFSS  75.7
0F4C:  BRA    0F72
0F4E:  BRA    0F54
0F50:  BTFSC  75.7
0F52:  BRA    0FA6
0F54:  MOVF   6D,W
0F56:  SUBWF  75,W
0F58:  BNC   0FA6
0F5A:  BNZ   0F72
0F5C:  MOVF   6C,W
0F5E:  SUBWF  74,W
0F60:  BNC   0FA6
0F62:  BNZ   0F72
0F64:  MOVF   6B,W
0F66:  SUBWF  73,W
0F68:  BNC   0FA6
0F6A:  BNZ   0F72
0F6C:  MOVF   72,W
0F6E:  SUBWF  6A,W
0F70:  BC    0FA6
....................    { 
....................    dbg_printf("EEPROM is damaged?"); 
0F72:  MOVLW  26
0F74:  MOVWF  FF6
0F76:  MOVLW  02
0F78:  MOVWF  FF7
0F7A:  RCALL  07CC
0F7C:  RCALL  07EC
....................    //dbg_return_carriage(); 
....................    *readen_val = default_val; 
0F7E:  MOVFF  64,FE9
0F82:  MOVFF  65,FEA
0F86:  MOVFF  6E,FEF
0F8A:  MOVFF  6F,FEC
0F8E:  MOVFF  70,FEC
0F92:  MOVFF  71,FEC
....................    delay_ms(2000); 
0F96:  MOVLW  08
0F98:  MOVWF  72
0F9A:  MOVLW  FA
0F9C:  MOVWF  76
0F9E:  CALL   0766
0FA2:  DECFSZ 72,F
0FA4:  BRA    0F9A
....................    } 
0FA6:  RETURN 0
.................... } 
....................  
.................... /*void read_and_check_value_int8 (EEPROM_ADDRESS address, void *data, EEPROM_ADDRESS _size_of_data, int8 min_val, int8 max_val, int8 default_val) 
.................... { 
....................    //int8 _internal_data; 
....................    read_ext_eeprom(address, *data, _size_of_data); 
....................    //dbg_printf("AAAAA:   %d     ", *data); 
....................    //delay_ms(5000); 
....................    check_read_value_int8(&data, min_val, max_val, default_val);//, address); 
....................    //dbg_printf("AAAAA:   %d     ", *data); 
....................    //delay_ms(5000); 
.................... //check_value_int8(data, min_val, max_val, default_val); 
.................... }*/ 
....................  
.................... /*void read_and_check_value_int32(EEPROM_ADDRESS address, void *data, EEPROM_ADDRESS _size_of_data, int32 min_val, int32 max_val, int32 default_val) 
.................... { 
....................    read_ext_eeprom(address, *data, _size_of_data); 
....................    check_read_value_int32(&data, min_val, max_val, default_val);//, address); 
.................... }*/ 
....................  
.................... void check_temp_value_int8(signed int8 *readen_val, signed int8 min_val, signed int8 max_val) 
.................... { 
.................... if (*readen_val<min_val) 
....................    *readen_val = min_val; 
.................... else if  (*readen_val>max_val) 
....................    *readen_val = max_val; 
.................... //else 
.................... //   *readen_val=*readen_val; 
.................... } 
....................  
....................  
.................... #define  EEPROM_MODULE_READ_radio_1st_run();       read_ext_eeprom( RADIO_1st_run_addr, &_radio_1st_run, RADIO_1st_run_len); 
.................... #define  EEPROM_MODULE_WRITE_radio_1st_run();      write_ext_eeprom(RADIO_1st_run_addr, &_radio_1st_run, RADIO_1st_run_len); 
....................  
.................... #define  EEPROM_MODULE_WRITE_audio_input();        write_ext_eeprom(RADIO_Input_addr, &audio_devices_playing_submenu, RADIO_Input_len); 
.................... #define  EEPROM_MODULE_READ_audio_input();         read_ext_eeprom( RADIO_Input_addr, &audio_devices_playing_submenu, RADIO_Input_len); 
.................... #define  EEPROM_MODULE_CHECK_audio_input();        check_read_value_int8(&audio_devices_playing_submenu, audio_input_MIN_VAL, audio_input_MAX_VAL, audio_input_DEFAULT_VAL); 
.................... //#define  EEPROM_MODULE_R_C_audio_input();          read_and_check_value_int8(RADIO_Input_addr, &audio_devices_playing_submenu, RADIO_Input_len, audio_input_MIN_VAL, audio_input_MAX_VAL, audio_input_DEFAULT_VAL); 
....................                                                     
.................... #define  EEPROM_MODULE_WRITE_active_antena();      write_ext_eeprom(Active_Antena_addr, &EQU_use_active_antena_val, Active_Antena_len); 
.................... #define  EEPROM_MODULE_READ_active_antena();       read_ext_eeprom( Active_Antena_addr, &EQU_use_active_antena_val, Active_Antena_len); 
.................... #define  EEPROM_MODULE_CHECK_active_antena();      check_read_value_int8(&EQU_use_active_antena_val, active_antena_MIN_VAL, active_antena_MAX_VAL, active_antena_MAX_VAL); 
.................... //#define  EEPROM_MODULE_R_C_active_antena();        read_and_check_value_int8(Active_Antena_addr, &EQU_use_active_antena_val, Active_Antena_len, active_antena_MIN_VAL, active_antena_MAX_VAL, active_antena_MAX_VAL); 
....................  
.................... #define  EEPROM_MODULE_WRITE_fm_freqency();        write_ext_eeprom(FM_freuency_addr, &FM_freuency_value, FM_freuency_len); 
.................... #define  EEPROM_MODULE_READ_fm_freqency();         read_ext_eeprom( FM_freuency_addr, &FM_freuency_value, FM_freuency_len); 
.................... #define  EEPROM_MODULE_CHECK_fm_freqency();        check_read_value_int32(&FM_freuency_value, FM_freuency_MIN_VAL, FM_freuency_MAX_VAL, FM_freuency_DEFAULT_VAL); 
.................... //#define  EEPROM_MODULE_R_C_fm_freqency();          read_and_check_value_int32(FM_freuency_addr, &FM_freuency_value, FM_freuency_len, FM_freuency_MIN_VAL, FM_freuency_MAX_VAL, FM_freuency_DEFAULT_VAL); 
....................  
.................... #define  EEPROM_MODULE_WRITE_am_freqency();        write_ext_eeprom(AM_freuency_addr, &AM_freuency_value, AM_freuency_len); 
.................... #define  EEPROM_MODULE_READ_am_freqency();         read_ext_eeprom( AM_freuency_addr, &AM_freuency_value, AM_freuency_len); 
.................... #define  EEPROM_MODULE_CHECK_am_freqency();        check_read_value_int32(&AM_freuency_value, AM_freuency_MIN_VAL, AM_freuency_MAX_VAL, AM_freuency_DEFAULT_VAL); 
.................... //#define  EEPROM_MODULE_R_C_am_freqency();          read_and_check_value_int32(AM_freuency_addr, &AM_freuency_value, AM_freuency_len, AM_freuency_MIN_VALL, AM_freuency_MAX_VAL, AM_freuency_DEFAULT_VAL); 
....................  
.................... #define  EEPROM_MODULE_WRITE_equ_vol();            write_ext_eeprom(EQU_Vol_addr, &EQU_VOL_value, EUQ_Vol_len); 
.................... #define  EEPROM_MODULE_READ_equ_vol();             read_ext_eeprom( EQU_Vol_addr, &EQU_VOL_value, EUQ_Vol_len); 
.................... #define  EEPROM_MODULE_CHECK_equ_vol();            check_read_value_int8(&EQU_VOL_value, EQU_VOL_MIN_VAL, EQU_VOL_MAX_VAL, EQU_VOL_DEFAULT_VAL); 
.................... //#define  EEPROM_MODULE_R_C_equ_vol();              read_and_check_value_int8(EQU_Vol_addr, &EQU_VOL_value, EUQ_Vol_len, EQU_VOL_MIN_VAL, EQU_VOL_MAX_VAL, EQU_VOL_DEFAULT_VAL); 
.................... #define  EEPROM_MODULE_CHECK_TEMP_equ_vol();       check_temp_value_int8(&EQU_VOL_value, EQU_VOL_MIN_VAL, EQU_VOL_MAX_VAL); 
....................  
.................... #define  EEPROM_MODULE_WRITE_equ_treble();         write_ext_eeprom(EQU_Treble_addr, &EQU_Treble_value, EQU_Treble_len); 
.................... #define  EEPROM_MODULE_READ_equ_treble();          read_ext_eeprom( EQU_Treble_addr, &EQU_Treble_value, EQU_Treble_len); 
.................... #define  EEPROM_MODULE_CHECK_equ_treble();         check_read_value_int8(&EQU_Treble_value, EQU_Treble_MIN_VAL, EQU_Treble_MAX_VAL, EQU_Treble_DEFAULT_VAL); 
.................... //#define  EEPROM_MODULE_R_C_equ_treble();           read_and_check_value_int8(EQU_Treble_addr, &EQU_Treble_value, EQU_Treble_len, EQU_Treble_MIN_VAL, EQU_Treble_MAX_VAL, EQU_Treble_DEFAULT_VAL); 
....................  
.................... #define  EEPROM_MODULE_WRITE_equ_middle();         write_ext_eeprom(EQU_Middle_addr, &EQU_Middle_value, EQU_Middle_len); 
.................... #define  EEPROM_MODULE_READ_equ_middle();          read_ext_eeprom( EQU_Middle_addr, &EQU_Middle_value, EQU_Middle_len); 
.................... #define  EEPROM_MODULE_CHECK_equ_middle();         check_read_value_int8(&EQU_Middle_value, EQU_Middle_MIN_VAL, EQU_Middle_MAX_VAL, EQU_Middle_DEFAULT_VAL); 
.................... //#define  EEPROM_MODULE_R_C_equ_middle();           read_and_check_value_int8(EQU_Middle_addr, &EQU_Middle_value, EQU_Middle_len, EQU_Middle_MIN_VAL, EQU_Middle_MAX_VAL, EQU_Middle_DEFAULT_VAL); 
....................  
.................... #define  EEPROM_MODULE_WRITE_equ_bass();           write_ext_eeprom(EQU_Bass_addr, &EQU_Bass_value, EQU_Bass_len); 
.................... #define  EEPROM_MODULE_READ_equ_bass();            read_ext_eeprom( EQU_Bass_addr, &EQU_Bass_value, EQU_Bass_len); 
.................... #define  EEPROM_MODULE_CHECK_equ_bass();           check_read_value_int8(&EQU_Bass_value, EQU_Bass_MIN_VAL, EQU_Bass_MAX_VAL, EQU_Bass_DEFAULT_VAL); 
.................... //#define  EEPROM_MODULE_R_C_equ_bass();             read_and_check_value_int8(EQU_Bass_addr, &EQU_Bass_value, EQU_Bass_len, EQU_Bass_MIN_VAL, EQU_Bass_MAX_VAL, EQU_Bass_DEFAULT_VAL); 
....................  
.................... #define  EEPROM_MODULE_WRITE_equ_l_h_boost();      write_ext_eeprom(EQU_L_H_Boost_addr, &EQU_L_H_Boost_value, EQU_L_H_Boost_len); 
.................... #define  EEPROM_MODULE_READ_equ_l_h_boost();       read_ext_eeprom( EQU_L_H_Boost_addr, &EQU_L_H_Boost_value, EQU_L_H_Boost_len); 
.................... #define  EEPROM_MODULE_CHECK_equ_l_h_boost();      check_read_value_int8(&EQU_L_H_Boost_value, EQU_L_H_Boost_MIN_VAL, EQU_L_H_Boost_MAX_VAL, EQU_L_H_Boost_DEFAULT_VAL); 
.................... //#define  EEPROM_MODULE_R_C_equ_l_h_boost();        read_and_check_value_int8(EQU_L_H_Boost_addr, &EQU_L_H_Boost_value, EQU_L_H_Boost_len, EQU_L_H_Boost_MIN_VAL, EQU_L_H_Boost_MAX_VAL, EQU_L_H_Boost_DEFAULT_VAL); 
....................  
.................... #define  EEPROM_MODULE_WRITE_equ_left_right();     write_ext_eeprom(EQU_Left_Right_addr, &EQU_Left_Right_value, EQU_Left_Right_len); 
.................... #define  EEPROM_MODULE_READ_equ_left_right();      read_ext_eeprom( EQU_Left_Right_addr, &EQU_Left_Right_value, EQU_Left_Right_len); 
.................... #define  EEPROM_MODULE_CHECK_equ_left_right();     check_read_value_int8(&EQU_Left_Right_value, EQU_Left_Right_MIN_VAL, EQU_Left_Right_MAX_VAL, EQU_Left_Right_DEFAULT_VAL); 
.................... //#define  EEPROM_MODULE_R_C_equ_left_right();       read_and_check_value_int8(EQU_Left_Right_addr, &EQU_Left_Right_value, EQU_Left_Right_len, EQU_Left_Right_MIN_VAL, EQU_Left_Right_MAX_VAL, EQU_Left_Right_DEFAULT_VAL); 
....................  
.................... #define  EEPROM_MODULE_WRITE_equ_front_rear();     write_ext_eeprom(EQU_Front_Rear_addr, &EQU_Front_Rear_value, EQU_Front_Rear_len); 
.................... #define  EEPROM_MODULE_READ_equ_front_rear();      read_ext_eeprom( EQU_Front_Rear_addr, &EQU_Front_Rear_value, EQU_Front_Rear_len); 
.................... #define  EEPROM_MODULE_CHECK_equ_front_rear();     check_read_value_int8(&EQU_Front_Rear_value, EQU_Front_Rear_MIN_VAL, EQU_Front_Rear_MAX_VAL, EQU_Front_Rear_DEFAULT_VAL); 
.................... //#define  EEPROM_MODULE_R_C_equ_equ_front_rear();   read_and_check_value_int8(EQU_Front_Rear_addr, &EQU_Front_Rear_value, EQU_Front_Rear_len, EQU_Front_Rear_MIN_VAL, EQU_Front_Rear_MAX_VAL, EQU_Front_Rear_DEFAULT_VAL); 
....................  
.................... #define  EEPROM_MODULE_WRITE_hmi_backlight();      write_ext_eeprom(Backlight_addr, &EQU_Backlight_value, Backlight_len); 
.................... #define  EEPROM_MODULE_READ_hmi_backlight();       read_ext_eeprom( Backlight_addr, &EQU_Backlight_value, Backlight_len); 
.................... #define  EEPROM_MODULE_CHECK_hmi_backlight();      check_read_value_int8(&EQU_Backlight_value, Backlight_MIN_VAL, Backlight_MAX_VAL, Backlight_DEFAULT_VAL); 
.................... //#define  EEPROM_MODULE_R_C__hmi_backlight();       read_and_check_value_int8(Backlight_addr, &EQU_Backlight_value, Backlight_len, Backlight_MIN_VAL, Backlight_MAX_VAL, Backlight_DEFAULT_VAL); 
....................  
....................  
.................... //#define  EEPROM_MODULE_READ_dab_frequency(); 
.................... //#define  EEPROM_MODULE_WRITE_dab_frequency(); 
....................  
....................  
.................... #endif    
....................  
.................... /*#ifndef __i2c_read_active_antena_setup__ 
....................    #include </MCU_include/hardware/I2C_HMI/i2c_read_active_antena_setpu/i2c_read_active_antena_setpu.c> 
.................... #endif*/ 
....................  
.................... #ifndef __RADIO_DEFAULTS_PARAMETERS__ 
....................    #include </HMI_MCU_common_includes/MCU_radio_default_parameters/radio_default_parameters.h> 
.................... #ifndef __RADIO_DEFAULTS_PARAMETERS__ 
....................    #define  __RADIO_DEFAULTS_PARAMETERS__ 
....................     
....................       /*--------------------------------------------*/ 
....................       /*-------- RADIO VARIABLE PARAMETERS ---------*/ 
....................       /*--------------------------------------------*/ 
....................        
.................... //      #ifndef __menu_module_function__ 
....................  //        #include</MCU_include/modules/menu_module/menu_module.c> 
....................   //    #endif 
....................          #define FM_freuency_DEFAULT_VAL       87500000 
....................          #define FM_freuency_step              100000 
....................          #if defined US_EU_FM_RADIO 
....................             #define FM_freuency_MIN_VAL        87500000 
....................             #define FM_freuency_MAX_VAL        108000000 
....................          #elif defined JAPAN_FM_RADIO 
....................             #define FM_freuency_MIN_VAL        76000000 
....................             #define FM_freuency_MAX_VAL        91000000 
....................          #endif 
....................           
....................          #if defined EU_AM_RADIO 
....................             #define AM_freuency_DEFAULT_VAL       522000    //TODO: SPRAWDZIÆ PRZELICZNIK CZÊSTOTLIWOŒCI                                 
....................             #define AM_freuency_step              9000 
....................             #define AM_freuency_MIN_VAL           522000    //TODO: SPRAWDZIÆ PRZELICZNIK CZÊSTOTLIWOŒCI 
....................             #define AM_freuency_MAX_VAL           1611000   //TODO: SPRAWDZIÆ PRZELICZNIK CZÊSTOTLIWOŒCI 
....................          #elif defined US_AM_RADIO 
....................             #define AM_freuency_DEFAULT_VAL       522000    //TODO: SPRAWDZIÆ PRZELICZNIK CZÊSTOTLIWOŒCI                                 
....................             #define AM_freuency_step              10000 
....................             #define AM_freuency_MIN_VAL           522000    //TODO: SPRAWDZIÆ PRZELICZNIK CZÊSTOTLIWOŒCI 
....................             #define AM_freuency_MAX_VAL           1710000   //TODO: SPRAWDZIÆ PRZELICZNIK CZÊSTOTLIWOŒCI   
....................          #endif    
....................           
....................          #define active_antena_MIN_VAL         0 
....................          #define active_antena_MAX_VAL         1 
....................           
....................          #define EQU_VOL_DEFAULT_VAL           5   
....................          #define EQU_VOL_MIN_VAL               0 
....................          #define EQU_VOL_MAX_VAL               40  //const int8 AUDIO_speaker_LeftRight_FrontRear[41], wiêc 41-1 
....................           
....................          #define EQU_Treble_DEFAULT_VAL        0     
....................          #define EQU_Treble_MIN_VAL            0    
....................          #define EQU_Treble_MAX_VAL            30  //const int8 AUDIO_Treble_Middle_Bass[31], wiêc 31-1 
....................           
....................          #define EQU_Middle_DEFAULT_VAL        0 
....................          #define EQU_Middle_MIN_VAL            0 
....................          #define EQU_Middle_MAX_VAL            30  //const int8 AUDIO_Treble_Middle_Bass[31], wiêc 31-1 
....................           
....................          #define EQU_Bass_DEFAULT_VAL          0 
....................          #define EQU_Bass_MIN_VAL              0 
....................          #define EQU_Bass_MAX_VAL              30  //const int8 AUDIO_Treble_Middle_Bass[31], wiêc 31-1   
....................           
....................          #define EQU_L_H_Boost_DEFAULT_VAL     0 
....................          #define EQU_L_H_Boost_MIN_VAL         0 
....................          #define EQU_L_H_Boost_MAX_VAL         1   //const int8 AUDIO_low_high_boost[2], wiêc 2-1 
....................           
....................          #define EQU_Left_Right_DEFAULT_VAL    0   
....................          #define EQU_Left_Right_MIN_VAL        -6 //0xFA      //-6 w hex 
....................          #define EQU_Left_Right_MAX_VAL        6         //const int8 AUDIO_speaker_LeftRight_FrontRear[7], wiêc 7-1 
....................           
....................          #define EQU_Front_Rear_DEFAULT_VAL    0 
....................          #define EQU_Front_Rear_MIN_VAL        -6 //0xFA      //-6 w hex 
....................          #define EQU_Front_Rear_MAX_VAL        6   //const int8 AUDIO_speaker_LeftRight_FrontRear[7], wiêc 7-1    
....................           
....................          #define Backlight_MAX_VAL             1 
....................          #define Backlight_DEFAULT_VAL         Backlight_MAX_VAL 
....................          #define Backlight_MIN_VAL             0 
....................           
....................           
....................           
....................           //TODO: DAB_freuency_value 
....................           //TODO: Backlight_value    
....................           
....................           
....................  /*        #ifndef __menu_module_function__ 
....................                #include</MCU_include/modules/menu_module/menu_module.c> 
....................          #endif*/ 
....................           
....................           
....................          #define audio_input_DEFAULT_VAL       0 
....................          #define audio_input_MIN_VAL           0 
....................          #define audio_input_MAX_VAL           MENU_MODULE_NOTSUPPORTED_input 
....................       /*--------------------------------------------*/ 
....................       /*-------- RADIO VARIABLE PARAMETERS ---------*/ 
....................       /*--------------------------------------------*/ 
....................  
.................... #endif 
....................  
.................... #endif 
....................  
.................... #ifndef __menu_module_function__ 
....................    #include</MCU_include/modules/menu_module/menu_module.c> 
.................... #include<menu_module.h> 
.................... #ifndef __menu_module_function__ 
....................    #define __menu_module_function__ 
....................     
....................    #ifndef __keyboard__ 
....................    #include</MCU_include/hardware/keyboard/kyeboard.c> 
....................    #endif 
....................     
....................    #ifndef __timeout__ 
....................    #include </MCU_include/core/timer/timeout.c> 
....................    #endif 
....................     
....................    #ifndef _i2c_HMI_LEDS_ 
....................       #include </MCU_include/hardware/I2C_HMI/i2c_HMI_LEDS/i2c_HMI_LEDS.c> 
.................... #include <i2c_HMI_LEDS.h> 
.................... #ifndef _i2c_HMI_LEDS_ 
....................    #define _i2c_HMI_LEDS_ 
.................... /*   #ifndef _i2c_Slave_buffer_addresses_ 
....................       #include <F:/Elektronika_projekty/Car_Radio/testowy/PIC2PIC_slave/core/i2c_Slave_buffer_addresses/i2c_Slave_buffer_addresses.h> 
....................       #include <F:/Elektronika_projekty/Car_Radio/testowy/PIC2PIC_slave/core/i2c_slave_address/i2c_slave_address.h> 
....................        
....................    #endif*/ 
.................... #ifndef _I2C_ENGINE_ 
....................    #include </MCU_include/core/I2C_Engine/I2C_Engine.c> 
.................... #endif 
....................  
.................... #ifndef _i2c_HMI_main_ 
....................    #include </MCU_include/hardware/I2C_HMI/i2c_HMI_main.c>  
.................... #endif 
....................  
....................    #define led_ON    1 
....................    #define led_OFF   0 
....................     
....................    #define  audio_led_pack       set_1st_pack 
....................    #define  equalizer_led_pack   set_2nd_pack 
....................    #define  AANTENA_led_pack     set_3rd_pack 
....................     
....................    #define  audio_FM_R                 LED1_RED_no 
....................    #define  audio_DAB_G                LED1_GREEN_no 
....................    #define  audio_MP3_B                LED1_BLUE_no 
....................    #define  audio_MP3_RND_R            LED1_RED_no 
....................    #define  audio_MP3_RND_G            LED1_GREEN_no 
....................    #define  audio_AUX_R                LED1_RED_no 
....................    #define  audio_AUX_B                LED1_BLUE_no 
....................     
....................    #define  equalizer_AANTENA_R        LED2_RED_no 
....................    #define  equalizer_TREBLE_G         LED2_GREEN_no 
....................    #define  equalizer_MIDDLE_B         LED2_BLUE_no 
....................    #define  equalizer_BASS_R           LED2_RED_no 
....................    #define  equalizer_BASS_G           LED2_GREEN_no 
....................    #define  equalizer_L_H_BOOST_R      LED2_RED_no 
....................    #define  equalizer_L_H_BOOST_B      LED2_BLUE_no 
....................    #define  equalizer_LEFT_RIGHT_G     LED2_GREEN_no 
....................    #define  equalizer_LEFT_RIGHT_B     LED2_BLUE_no 
....................    #define  equalizer_FRONT_READ_R     LED2_RED_no 
....................    #define  equalizer_FRONT_READ_G     LED2_GREEN_no 
....................    #define  equalizer_FRONT_READ_B     LED2_BLUE_no 
....................     
....................    #define  AANTENA_R                  LED3_RED_no          //ACTIVE ANTENA LED on/off 
....................     
....................  
.................... /*void set_all_leds(unsigned int8); 
.................... void set_one_led(unsigned int8, unsigned int8); 
.................... void set_leds_pack(unsigned int8, unsigned int8);*/ 
....................  
.................... void set_all_pack_colour(int8); 
.................... void set_x_pack_colour(int8, int8); 
.................... void set_blink_all_packs(int8, int8); 
.................... void set_blink_x_pack(int8, int8, int8); 
.................... void clrl_all_packs(void); 
.................... void clrl_x_pack(int8); 
.................... #endif 
....................     
....................     
....................     
....................     
....................     
....................  
....................  
....................  
.................... /*#ifndef _i2c_HMI_main_ 
....................    #include </MCU_include/hardware/I2C_HMI/i2c_HMI_main.c>  
.................... #endif*/ 
....................  
....................  
.................... //void _HMI_i2cWritePrepare (void) 
.................... //{ 
.................... /* Prepare Transmission buffer to transmission*/ 
....................    //ClearBuffers(&MasterBuffer,I2C_BUFSIZE); 
.................... //   *(MasterBuffer) = i2c_slave_address; 
.................... //} 
....................  
.................... //void _HMI_i2cWriteExecute(void) 
.................... //{ 
.................... ///* I2Cengine write parameters setup */ 
.................... //   I2CWriteLength = 5; //i2cEngine write information 
.................... //   I2CReadLength = 0;  //i2cEngine read information 
.................... //   i2cEngine(normal__I2C);        //write or read data  depend of I2CWriteLength and I2CReadLength 
.................... //} 
....................  
....................  
....................  
....................  
....................  
.................... void set_all_pack_colour(int8 colour_1) 
.................... { 
....................    _HMI_i2cWritePrepare(); 
....................    i2c_MasterBuffer[1] = command_set_all_packs; 
....................    //MasterBuffer[2] = 0x0; 
....................    i2c_MasterBuffer[3] = colour_1; 
....................    //MasterBuffer[4] = 0x0; 
....................    _HMI_i2cWriteExecute(i2c_HMI_LEDS_w_command_len); 
.................... } 
....................  
.................... void set_x_pack_colour(int8 pack_no, int8 colour_1) 
.................... { 
....................    _HMI_i2cWritePrepare(); 
*
1114:  RCALL  0FBE
....................    i2c_MasterBuffer[1] = command_set_x_pack; 
1116:  MOVLW  03
1118:  MOVWF  1D
....................    i2c_MasterBuffer[2] = pack_no; 
111A:  MOVFF  76,1E
....................    i2c_MasterBuffer[3] = colour_1; 
111E:  MOVFF  77,1F
....................    //MasterBuffer[4] = 0x0; 
....................    _HMI_i2cWriteExecute(i2c_HMI_LEDS_w_command_len); 
1122:  MOVLW  05
1124:  MOVWF  78
1126:  RCALL  0FCE
1128:  RETURN 0
.................... } 
....................  
.................... void set_blink_all_packs(int8 colour_1, int8 colour_2) 
.................... { 
....................    _HMI_i2cWritePrepare(); 
....................    i2c_MasterBuffer[1] = command_blink_all_packs; 
....................    //MasterBuffer[2] = pack_no; 
....................    i2c_MasterBuffer[3] = colour_1; 
....................    i2c_MasterBuffer[4] = colour_2; 
....................    _HMI_i2cWriteExecute(i2c_HMI_LEDS_w_command_len); 
.................... } 
....................  
.................... void set_blink_x_pack(int8 pack_no, int8 colour_1, int8 colour_2) 
.................... { 
....................    _HMI_i2cWritePrepare(); 
*
176E:  RCALL  0FBE
....................    i2c_MasterBuffer[1] = command_blink_x_pack; 
1770:  MOVLW  05
1772:  MOVWF  1D
....................    i2c_MasterBuffer[2] = pack_no; 
1774:  MOVFF  63,1E
....................    i2c_MasterBuffer[3] = colour_1; 
1778:  MOVFF  64,1F
....................    i2c_MasterBuffer[4] = colour_2; 
177C:  MOVFF  65,20
....................    _HMI_i2cWriteExecute(i2c_HMI_LEDS_w_command_len); 
1780:  MOVWF  78
1782:  RCALL  0FCE
1784:  RETURN 0
.................... } 
....................  
....................  
....................  
....................  
.................... void clrl_all_packs(void) 
.................... { 
....................    _HMI_i2cWritePrepare(); 
*
0FDE:  RCALL  0FBE
....................    i2c_MasterBuffer[1] = command_clrl_all_packs; 
0FE0:  CLRF   1D
....................    //MasterBuffer[2] = pack_no; 
....................    //MasterBuffer[3] = colour_1; 
....................    //MasterBuffer[4] = colour_2; 
....................    _HMI_i2cWriteExecute(i2c_HMI_LEDS_w_command_len); 
0FE2:  MOVLW  05
0FE4:  MOVWF  78
0FE6:  RCALL  0FCE
0FE8:  GOTO   2132 (RETURN)
.................... } 
....................  
.................... void clrl_x_pack(int8 pack_no) 
.................... { 
....................    _HMI_i2cWritePrepare(); 
*
1084:  RCALL  0FBE
....................    i2c_MasterBuffer[1] = command_clrl_x_pack; 
1086:  MOVLW  01
1088:  MOVWF  1D
....................    i2c_MasterBuffer[2] = pack_no; 
108A:  MOVFF  63,1E
....................    //MasterBuffer[3] = colour_1; 
....................    //MasterBuffer[4] = colour_2; 
....................    _HMI_i2cWriteExecute(i2c_HMI_LEDS_w_command_len); 
108E:  MOVLW  05
1090:  MOVWF  78
1092:  RCALL  0FCE
1094:  GOTO   10A4 (RETURN)
.................... } 
....................  
....................  
....................  
....................  
....................    #endif    
....................     
....................    #ifdef _USE_BACKLIGHT_ 
....................       #ifndef _i2c_HMI_BACKLIGHT_ 
....................             #include </MCU_include/hardware/I2C_HMI/i2c_HMI_BACKLIGHT/i2c_HMI_BACKLIGHT.c> 
....................       #endif 
....................    #endif 
....................     
....................    //#ifdef _USE_ACTIVE_ANTENA_ 
....................   #ifndef __ACTIVE_ANTENA_MODULE_ 
....................       #include</MCU_include/modules/active_antena_module/active_antena_module.c> 
.................... #include </active_antena_module.h> 
.................... #ifndef __ACTIVE_ANTENA_MODULE_ 
....................    #define __ACTIVE_ANTENA_MODULE_ 
....................  
....................   //#ifdef _USE_ACTIVE_ANTENA_  
....................    
....................    
....................    
....................    //#ifndef ACTIVE_ANTENA 
....................    //   #include</MCU_include/hardware/ActiveAntena/ActiveAntena.c> 
....................    //#endif 
....................    #ifndef _i2c_HMI_LEDS_ 
....................       #include </MCU_include/hardware/I2C_HMI/i2c_HMI_LEDS/i2c_HMI_LEDS.c> 
....................    #endif 
....................     
....................   //void ACTIVE_ANTENA_MODULE_active_antena_OFF(void); 
....................   void ACTIVE_ANTENA_MODULE_active_antena_ON(int1, int1, int1, int1, int1); 
....................   //void ACTIVE_ANTENA_MODULE_active_antena_ON(void); 
....................   int8 ACTIVE_ANTENA_MODULE_get_antena_power_setup_from_HMI (void); 
....................   //#endif 
....................  
....................  
.................... #endif 
....................  
....................  
.................... //#ifdef _USE_ACTIVE_ANTENA_  
....................  
.................... #define ACTIVE_ANTENA_MODULE_active_antena_ON_TEA_5756()                ACTIVE_ANTENA_MODULE_active_antena_ON(Active_FM_antena_hardware_setup, EQU_use_active_antena_val ,0, 0, 0) 
.................... #define ACTIVE_ANTENA_MODULE_active_antena_ON_MONKEYBOARD_FM_AM()       ACTIVE_ANTENA_MODULE_active_antena_ON(Active_FM_antena_hardware_setup, EQU_use_active_antena_val ,Active_converter_antena_hardware_setup, Active_DAB_antena_hardware_setup, 0) 
.................... #define ACTIVE_ANTENA_MODULE_active_antena_ON_MONKEYBOARD_DAB()         ACTIVE_ANTENA_MODULE_active_antena_ON(Active_FM_antena_hardware_setup, 0                         ,Active_converter_antena_hardware_setup, Active_DAB_antena_hardware_setup, EQU_use_active_antena_val) 
.................... #define ACTIVE_ANTENA_MODULE_active_antena_ON_MONKEYBOARD_CONVERTER()   ACTIVE_ANTENA_MODULE_active_antena_ON(0,                               0                         ,Active_converter_antena_hardware_setup, 0, 0) 
....................  
....................    void ACTIVE_ANTENA_MODULE_active_antena_ON(int1 FM_hardware_setup, int1 FM_eeprom_value, int1 Converter_hardware_setup, int1 DAB_hardware_setup, int1 DAB_eeprom_value, unsigned int antena_voltage_propagation_time = 150) 
....................    {   
....................       if ((FM_hardware_setup && FM_eeprom_value)||(DAB_hardware_setup && DAB_eeprom_value)) 
*
112A:  MOVF   70,F
112C:  BZ    1132
112E:  MOVF   71,F
1130:  BNZ   113A
1132:  MOVF   73,F
1134:  BZ    1154
1136:  MOVF   74,F
1138:  BZ    1154
....................       { 
....................          dbg_printf("Ta linijka powinna byc wykasowana\r\n"); 
113A:  MOVLW  3A
113C:  MOVWF  FF6
113E:  MOVLW  02
1140:  MOVWF  FF7
1142:  CALL   07CC
1146:  CALL   07EC
....................          //dbg_return_carriage() 
....................          set_x_pack_colour(pack_3, colour_RED); 
114A:  MOVLW  03
114C:  MOVWF  76
114E:  MOVLW  04
1150:  MOVWF  77
1152:  RCALL  1114
....................       } 
....................       output_bit (FM_ANTENA_POWR_ON_OFF_pin, FM_hardware_setup *FM_eeprom_value); 
1154:  MOVF   70,W
1156:  MULWF  71
1158:  MOVF   FF3,W
115A:  BNZ   1160
115C:  BCF    F8A.5
115E:  BRA    1162
1160:  BSF    F8A.5
1162:  BCF    F93.5
....................       output_bit (DAB_FM_CONVERTER_POWR_ON_OFF_pin, Converter_hardware_setup); 
1164:  MOVF   72,F
1166:  BNZ   116C
1168:  BCF    F8A.4
116A:  BRA    116E
116C:  BSF    F8A.4
116E:  BCF    F93.4
....................       output_bit (DAB_ANTENA_POWR_ON_OFF_pin, DAB_hardware_setup * DAB_eeprom_value); 
1170:  MOVF   73,W
1172:  MULWF  74
1174:  MOVF   FF3,W
1176:  BNZ   117C
1178:  BCF    F8C.7
117A:  BRA    117E
117C:  BSF    F8C.7
117E:  BCF    F95.7
....................       delay_ms(antena_voltage_propagation_time); 
1180:  MOVFF  75,76
1184:  CALL   0766
1188:  RETURN 0
....................        
....................    } 
....................     
....................    void ACTIVE_ANTENA_MODULE_active_antena_OFF(void) 
....................    { 
....................       set_x_pack_colour(pack_3, colour_BLACK); 
118A:  MOVLW  03
118C:  MOVWF  76
118E:  MOVLW  87
1190:  MOVWF  77
1192:  RCALL  1114
....................       ACTIVE_ANTENA_MODULE_active_antena_ON(0,0,0,0,0,0); 
1194:  CLRF   70
1196:  CLRF   71
1198:  CLRF   72
119A:  CLRF   73
119C:  CLRF   74
119E:  CLRF   75
11A0:  RCALL  112A
11A2:  RETURN 0
....................    } 
.................... //#endif 
....................  
.................... int8 ACTIVE_ANTENA_MODULE_get_antena_power_setup_from_HMI(void) 
.................... { 
....................    disable_interrupts(GLOBAL); 
*
0D06:  BCF    FF2.6
0D08:  BCF    FF2.7
0D0A:  BTFSC  FF2.7
0D0C:  BRA    0D08
....................    //dbg_printf("HMI antena bug: chyba mozesz go juz poprawic. To samo co w TEA5767 by³o"); 
....................    //dbg_return_carriage(); 
....................    //int8 data; 
....................     
....................     
....................   i2c_ClearMasterBuffer(); 
0D0E:  RCALL  0828
....................   i2c_ClearSlaveBuffers(); 
0D10:  RCALL  0838
....................    
....................    
....................   I2CWriteLength = 1; //"1" beacause i2c after start should write adress 
0D12:  CLRF   3F
0D14:  MOVLW  01
0D16:  MOVWF  3E
....................   I2CReadLength = 1; 
0D18:  CLRF   3D
0D1A:  MOVWF  3C
....................   i2c_MasterBuffer[0] = i2c_slave_address+1; 
0D1C:  MOVLW  11
0D1E:  MOVWF  1C
....................   i2cEngine(FALSE); 
0D20:  CLRF   79
0D22:  RCALL  0B48
....................  
....................     
.................... /*   _HMI_i2cWritePrepare (); 
....................    if (__try_i2c_bus()==0) 
....................    { 
....................     
....................       //int8 data; 
....................       i2c_start(); 
....................       i2c_write(i2c_slave_address+1); 
....................       data=i2c_read(0); 
....................       i2c_stop(); 
....................        
....................       return data; 
....................    } 
....................    else 
....................    { 
....................       dbg_printf("HMI i2c error. "); 
....................       data= 0; 
....................    }*/ 
....................     
....................     
....................     
....................    delay_ms(HMI_software_delay_ms); 
0D24:  MOVLW  05
0D26:  MOVWF  76
0D28:  RCALL  0766
....................    enable_interrupts(GLOBAL); 
0D2A:  MOVLW  C0
0D2C:  IORWF  FF2,F
....................    return i2c_SlaveBuffer[0]; 
0D2E:  MOVFF  2C,01
0D32:  GOTO   1B88 (RETURN)
....................    //return data; 
.................... } 
....................  
....................  
....................    #endif 
....................    //#endif 
....................     
....................    #ifndef __CONFIG_FILE__ 
....................    #include<mcu_main_MASTER_CONFIG_FILE.h> 
....................    #endif 
....................     
....................    #define MENU_MODULE_TEA5767_input           0 
....................    #define MENU_MODULE_MONKEYBOARD_FM_input    1 
....................    #define MENU_MODULE_MONKEYBOARD_DAB_input   2 
....................    #define MENU_MODULE_MONKEYBOARD_AM_input    3      
....................    #define MENU_MODULE_VMUSIC3_input           4 
....................    #define MENU_MODULE_VMUSIC3_RND_input       5 
....................    #define MENU_MODULE_BLUETOOTH_input         6    
....................    #define MENU_MODULE_AUX_input               7 
....................    #define MENU_MODULE_NOTSUPPORTED_input      8 
....................    #define MENU_MODULE_audio_devices_list_len  (MENU_MODULE_NOTSUPPORTED_input-1) 
....................     
....................    #define  MENU_MODULE_NO_NEED_to_back         0 
....................    #define  MENU_MODULE_VOLUME_menu             1 
....................    #define  MENU_MODULE_PLAY_menu               2 
....................    #define  MENU_MODULE_EQUALIZER_menu          3 
....................    #define  MENU_MODULE_UNSUPPORTED_menu        4 
....................     
....................    //const unsigned int MENU_MODULE_audio_devices_list[MENU_MODULE_NOTSUPPORTED_input]={ 
....................    const int MENU_MODULE_audio_devices_list[MENU_MODULE_NOTSUPPORTED_input]= 
....................        { 
....................    #ifdef _USE_TEA5767_      MENU_MODULE_TEA5767_input,          #else MENU_MODULE_NOTSUPPORTED_input, #endif 
....................    #ifdef _USE_MNONKEYBOARD_DAB_   MENU_MODULE_MONKEYBOARD_FM_input,   #else MENU_MODULE_NOTSUPPORTED_input, #endif 
....................    #ifdef _USE_MNONKEYBOARD_DAB_   MENU_MODULE_MONKEYBOARD_DAB_input,  #else MENU_MODULE_NOTSUPPORTED_input, #endif 
....................    #ifdef _USE_MNONKEYBOARD_DAB_   MENU_MODULE_MONKEYBOARD_AM_input,   #else MENU_MODULE_NOTSUPPORTED_input, #endif 
....................    #ifdef _USE_VMUSIC3_            MENU_MODULE_VMUSIC3_input,          #else MENU_MODULE_NOTSUPPORTED_input, #endif 
....................    #ifdef _USE_VMUSIC3_            MENU_MODULE_VMUSIC3_RND_input,      #else MENU_MODULE_NOTSUPPORTED_input, #endif 
....................    #ifdef _USE_BLUETOOTH_          MENU_MODULE_BLUETOOTH_input,        #else MENU_MODULE_NOTSUPPORTED_input, #endif   
....................    #ifdef _USE_AUX_                MENU_MODULE_AUX_input               #else MENU_MODULE_NOTSUPPORTED_input  #endif 
....................        }; 
....................     
....................     
....................     
....................    #define MENU_MODULE_EQUALISER_MENU_ACTIVE_ANTENA    0 
....................    #define MENU_MODULE_EQUALISER_MENU_Treble           1 
....................    #define MENU_MODULE_EQUALISER_MENU_Middle           2 
....................    #define MENU_MODULE_EQUALISER_MENU_Bass             3 
....................    #define MENU_MODULE_EQUALISER_MENU_Low_HighBoost    4 
....................    #define MENU_MODULE_EQUALISER_MENU_Left_Right       5 
....................    #define MENU_MODULE_EQUALISER_MENU_Front_Rear       6 
....................    #define MENU_MODULE_EQUALISER_MENU_Backlight        7 
....................    #define MENU_MODULE_EQUALISER_MENU_ERROR            8 
....................    #define MENU_MODULE_equaliser_menu_list_len         (MENU_MODULE_EQUALISER_MENU_ERROR-1) 
....................     
....................    //const unsigned int MENU_MODULE_equaliser_menu_list[MENU_MODULE_EQUALISER_MENU_ERROR] = { 
....................    const int MENU_MODULE_equaliser_menu_list[MENU_MODULE_EQUALISER_MENU_ERROR] = 
....................        { 
....................    //#ifdef _USE_ACTIVE_ANTENA_   MENU_MODULE_EQUALISER_MENU_ACTIVE_ANTENA, #else MENU_MODULE_EQUALISER_MENU_ERROR, #endif 
....................       MENU_MODULE_EQUALISER_MENU_ACTIVE_ANTENA, 
....................        MENU_MODULE_EQUALISER_MENU_Treble, 
....................        MENU_MODULE_EQUALISER_MENU_Middle, 
....................        MENU_MODULE_EQUALISER_MENU_Bass, 
....................        MENU_MODULE_EQUALISER_MENU_Low_HighBoost, 
....................        MENU_MODULE_EQUALISER_MENU_Left_Right, 
....................        MENU_MODULE_EQUALISER_MENU_Front_Rear, 
....................    #ifdef _USE_BACKLIGHT_   MENU_MODULE_EQUALISER_MENU_Backlight #else MENU_MODULE_EQUALISER_MENU_ERROR #endif     
....................        }; 
....................     
....................    void MENU_MODULE_reset_loop_conditions_TIMER_BUTTON_KEYBOARD(void); 
....................    void MENU_MODULE_reset_loop_conditions_BUTTON_KEYBOARD(void); 
....................    void MENU_MODULE_reset_loop_conditions_TIMER_BUTTON(void); 
....................     
....................    int1 MENU_MODULE_audio_device_init(int); 
....................    #define MENU_MODULE_audio_device_stepUP            0 
....................    #define MENU_MODULE_audio_device_stepDOWN          1 
....................    #define MENU_MODULE_audio_device_auto_tuneUP       2 
....................    #define MENU_MODULE_audio_device_auto_tuneDOWN     4 
....................    //void MENU_MODULE_audio_device_stepUP(int); 
....................    //void MENU_MODULE_audio_device_stepDOWN(int); 
....................    void MENU_MODULE_audio_device_step_action(int, int); 
....................     
....................    #define MENU_MODULE_EQUALISER_direct_UP      TRUE 
....................    #define MENU_MODULE_EQUALISER_direct_DOWN    FALSE 
....................    //void MENU_MODULE_submenu_action_DOWN(int); 
....................    //void MENU_MODULE_submenu_action_UP(int); 
....................    void MENU_MODULE_submenu_action(int, int1, int8); 
....................    void MENU_MODULE_submenu_set_LED(int); 
....................    void MENU_MODULE_submenu_clear_LED(int); 
....................     
....................    void MENU_MODULE_check_variable_boarders(signed int8 *, signed int8 , signed int8); 
.................... #endif 
....................  
....................  
....................  
.................... /*int8 check_boarders(signed int8 current_value, signed int8 min_value, signed int8 max_value) 
.................... { 
.................... if (current_value<min_value) 
....................    return min_value; 
.................... else if (current_value>max_value) 
....................    return max_value; 
.................... else 
....................    return current_value; 
.................... }*/ 
....................  
.................... void MENU_MODULE_reset_all_devices(int which_device) 
.................... { 
.................... //#ifdef _USE_ACTIVE_ANTENA_ 
....................  
....................    //if (MENU_MODULE_audio_devices_list[which_device]==MENU_MODULE_VMUSIC3_input ||MENU_MODULE_audio_devices_list[which_device]==MENU_MODULE_VMUSIC3_RND_input||MENU_MODULE_audio_devices_list[which_device]==MENU_MODULE_AUX_input||MENU_MODULE_audio_devices_list[which_device]==MENU_MODULE_BLUETOOTH_input)     //LACK OF SPACE YOU CAN DELATE THIS 1% 
....................     
.................... /*   if (MENU_MODULE_audio_devices_list[which_device]!=MENU_MODULE_TEA5767_input || 
....................    MENU_MODULE_audio_devices_list[which_device]!=MENU_MODULE_MONKEYBOARD_FM_input || 
....................    MENU_MODULE_audio_devices_list[which_device]!=MENU_MODULE_MONKEYBOARD_DAB_input || 
....................    MENU_MODULE_audio_devices_list[which_device]!=MENU_MODULE_MONKEYBOARD_AM_input 
....................    )     //LACK OF SPACE YOU CAN DELATE THIS 1%*/ 
....................     
....................    dbg_printf("Reset modules"); 
*
11A4:  MOVLW  5E
11A6:  MOVWF  FF6
11A8:  MOVLW  02
11AA:  MOVWF  FF7
11AC:  CALL   07CC
11B0:  CALL   07EC
....................    //dbg_return_carriage(); 
....................    ACTIVE_ANTENA_MODULE_active_antena_OFF(); 
11B4:  RCALL  118A
.................... //#endif 
....................  
.................... #ifdef _USE_TEA5767_ 
....................    //TODO: RESET TEA5767 
.................... #endif 
....................  
.................... #ifdef _USE_MNONKEYBOARD_DAB_ 
....................    //TODO: RESET MonkeyBoard 
.................... #endif 
....................  
.................... #ifdef _USE_VMUSIC3_ 
....................    //TODO: RESET VMusic 
.................... #endif 
....................  
.................... #ifdef _USE_BLUETOOTH_ 
....................    //TODO: RESET VMusic 
.................... #endif 
....................  
.................... #ifdef _USE_AUX_ 
....................    //TODO: RESET AUX 
.................... #endif 
11B6:  RETURN 0
....................  
.................... //TODO: Reset konvertera FM na FM/ DAB+ jeœli bêdzie jego w³aczanie sterowane PICem 
.................... } 
....................  
.................... void MENU_MODULE_check_variable_boarders(signed int8 *current_value, signed int8 min_value, signed int8 max_value) 
.................... { 
.................... if (*current_value<=min_value) 
*
1824:  MOVFF  6C,03
1828:  MOVFF  6B,FE9
182C:  MOVFF  6C,FEA
1830:  MOVF   FEF,W
1832:  XORLW  80
1834:  MOVWF  00
1836:  MOVF   6D,W
1838:  XORLW  80
183A:  SUBWF  00,W
183C:  BZ    1840
183E:  BC    1852
....................    *current_value = min_value; 
1840:  MOVFF  6C,03
1844:  MOVFF  6B,FE9
1848:  MOVFF  6C,FEA
184C:  MOVFF  6D,FEF
1850:  BRA    187A
.................... else if (*current_value>=max_value) 
1852:  MOVFF  6C,03
1856:  MOVFF  6B,FE9
185A:  MOVFF  6C,FEA
185E:  MOVF   6E,W
1860:  XORLW  80
1862:  MOVWF  00
1864:  MOVF   FEF,W
1866:  XORLW  80
1868:  SUBWF  00,W
186A:  BZ    186E
186C:  BC    187A
....................    *current_value = max_value; 
186E:  MOVFF  6B,FE9
1872:  MOVFF  6C,FEA
1876:  MOVFF  6E,FEF
187A:  RETURN 0
.................... } 
....................  
.................... void MENU_MODULE_reset_loop_conditions_TIMER_BUTTON_KEYBOARD(void) 
....................     { 
....................     timer_overflow_counter =0; 
*
1036:  CLRF   40
....................     set_button_loop_breakout(); 
1038:  CALL   0004
....................     clear_keyboard_value(); 
103C:  RCALL  102A
....................      
....................     delay_ms(1); 
103E:  MOVLW  01
1040:  MOVWF  76
1042:  CALL   0766
1046:  RETURN 0
....................     } 
....................  
.................... void MENU_MODULE_reset_loop_conditions_BUTTON_KEYBOARD(void) 
....................     { 
....................     set_button_loop_breakout(); 
1048:  CALL   0004
....................     clear_keyboard_value();          //Jeï¿½li po klawiszu nieczytanym ma wyjï¿½ï¿½ i zrobiï¿½ akcjï¿½ to zahaszhowaï¿½ 
104C:  RCALL  102A
....................      
....................     delay_ms(1); 
104E:  MOVLW  01
1050:  MOVWF  76
1052:  CALL   0766
1056:  RETURN 0
....................     } 
....................  
.................... void MENU_MODULE_reset_loop_conditions_TIMER_BUTTON(void) 
....................     { 
....................     timer_overflow_counter =0;       //key pressed so it should count from 0 
*
105E:  CLRF   40
....................     reset_button_loop_breakout();    //not supported key pressed so button_loop_breakout = 0 to exit loop 
1060:  BRA    1058
....................      
....................     delay_ms(1); 
1062:  MOVLW  01
1064:  MOVWF  76
1066:  CALL   0766
106A:  RETURN 0
....................     } 
....................  
.................... int1 MENU_MODULE_audio_device_init(int *which_device) 
*
1204:  BCF    64.0
....................     { 
....................     int1 is_dev_already_starter = FALSE; 
....................     const char comunicate[] = "Init device "; 
....................     switch (MENU_MODULE_audio_devices_list[*which_device]) 
1206:  MOVFF  62,FE9
120A:  MOVFF  63,FEA
120E:  CLRF   03
1210:  MOVF   FEF,W
1212:  CALL   00BA
1216:  MOVWF  01
1218:  ADDLW  F7
121A:  BTFSC  FD8.0
121C:  BRA    152A
121E:  ADDLW  09
1220:  GOTO   1536
....................         { 
.................... #ifdef _USE_TEA5767_ 
....................         case MENU_MODULE_TEA5767_input: 
....................          
....................             //TODO: wy³¹czyæ wszystkie urz¹dzenia ³acznie z active antena, a po set kolor w³aczyæ w³aœciwe 
....................             MENU_MODULE_reset_all_devices(*which_device); 
1224:  MOVFF  63,03
1228:  MOVFF  62,FE9
122C:  MOVFF  63,FEA
1230:  MOVFF  FEF,66
1234:  RCALL  11A4
....................             //dbg_printf("%s%u",comunicate, *which_device); 
....................             //dbg_printf("%s%u",comunicate, *which_device); 
....................             dbg_printf("%s TEA5767",comunicate); 
1236:  MOVLW  6C
1238:  MOVWF  FF6
123A:  MOVLW  02
123C:  MOVWF  FF7
123E:  CALL   07CC
1242:  MOVLW  7C
1244:  MOVWF  FF6
1246:  MOVLW  02
1248:  MOVWF  FF7
124A:  MOVLW  08
124C:  MOVWF  x81
124E:  CALL   089E
1252:  CALL   07EC
....................              
....................             //dbg_return_carriage(); 
....................             set_x_pack_colour(pack_1, colour_RED); 
1256:  MOVLW  01
1258:  MOVWF  76
125A:  MOVLW  04
125C:  MOVWF  77
125E:  RCALL  1114
....................             ACTIVE_ANTENA_MODULE_active_antena_ON_TEA_5756(); 
1260:  MOVLW  00
1262:  BTFSC  1B.2
1264:  MOVLW  01
1266:  MOVWF  66
1268:  MOVWF  70
126A:  MOVFF  41,71
126E:  CLRF   72
1270:  CLRF   73
1272:  CLRF   74
1274:  MOVLW  96
1276:  MOVWF  75
1278:  RCALL  112A
....................              
....................             //if (Active_FM_antena_hardware_setup * EQU_use_active_antena_val) 
....................             //   set_x_pack_colour(pack_3, colour_RED); 
....................             break; 
127A:  BRA    152A
.................... #endif 
....................  
.................... #ifdef _USE_MNONKEYBOARD_DAB_ 
....................         case MENU_MODULE_MONKEYBOARD_FM_input: 
....................          
....................             //TODO: wy³¹czyæ wszystkie urz¹dzenia ³acznie z active antena, a po set kolor w³aczyæ w³aœciwe 
....................             MENU_MODULE_reset_all_devices(*which_device); 
127C:  MOVFF  63,03
1280:  MOVFF  62,FE9
1284:  MOVFF  63,FEA
1288:  MOVFF  FEF,66
128C:  RCALL  11A4
....................             //TODO: wy³¹czyæ wszystkie urz¹dzenia ³acznie z active antena, a po set kolor w³aczyæ w³aœciwe 
....................             //dbg_printf("%s%u",comunicate, *which_device); 
....................              
....................             dbg_printf("%s MKB_FM",comunicate); 
128E:  MOVLW  6C
1290:  MOVWF  FF6
1292:  MOVLW  02
1294:  MOVWF  FF7
1296:  CALL   07CC
129A:  MOVLW  88
129C:  MOVWF  FF6
129E:  MOVLW  02
12A0:  MOVWF  FF7
12A2:  MOVLW  07
12A4:  MOVWF  x81
12A6:  CALL   089E
12AA:  CALL   07EC
....................             //dbg_return_carriage(); 
....................             set_x_pack_colour(pack_1, colour_RED); 
12AE:  MOVLW  01
12B0:  MOVWF  76
12B2:  MOVLW  04
12B4:  MOVWF  77
12B6:  RCALL  1114
....................             ACTIVE_ANTENA_MODULE_active_antena_ON_MONKEYBOARD_FM_AM(); 
12B8:  MOVLW  00
12BA:  BTFSC  1B.2
12BC:  MOVLW  01
12BE:  MOVWF  66
12C0:  MOVLW  00
12C2:  BTFSC  1B.4
12C4:  MOVLW  01
12C6:  MOVWF  68
12C8:  MOVLW  00
12CA:  BTFSC  1B.3
12CC:  MOVLW  01
12CE:  MOVWF  69
12D0:  MOVFF  66,70
12D4:  MOVFF  41,71
12D8:  MOVFF  68,72
12DC:  MOVWF  73
12DE:  CLRF   74
12E0:  MOVLW  96
12E2:  MOVWF  75
12E4:  RCALL  112A
....................              
....................             //if (Active_FM_antena_hardware_setup * EQU_use_active_antena_val) 
....................             //   set_x_pack_colour(pack_3, colour_RED); 
....................                 
....................                 
....................                //} 
....................    //         #endif 
....................             //TODO: w³¹czyæ radio ³acznie z prze³aczeniem wejœcia equalizera i ustawieniem gain wejœcia 
....................             
....................             break; 
12E6:  BRA    152A
....................         case MENU_MODULE_MONKEYBOARD_DAB_input: 
....................          
....................             //TODO: wy³¹czyæ wszystkie urz¹dzenia ³acznie z active antena, a po set kolor w³aczyæ w³aœciwe 
....................             MENU_MODULE_reset_all_devices(*which_device); 
12E8:  MOVFF  63,03
12EC:  MOVFF  62,FE9
12F0:  MOVFF  63,FEA
12F4:  MOVFF  FEF,66
12F8:  RCALL  11A4
....................             //TODO: wy³¹czyæ wszystkie urz¹dzenia ³acznie z active antena, a po set kolor w³aczyæ w³aœciwe 
....................             //dbg_printf("%s%u",comunicate, *which_device); 
....................             dbg_printf("%s MKB_DAB+",comunicate); 
12FA:  MOVLW  6C
12FC:  MOVWF  FF6
12FE:  MOVLW  02
1300:  MOVWF  FF7
1302:  CALL   07CC
1306:  MOVLW  92
1308:  MOVWF  FF6
130A:  MOVLW  02
130C:  MOVWF  FF7
130E:  MOVLW  09
1310:  MOVWF  x81
1312:  CALL   089E
1316:  CALL   07EC
....................             //dbg_return_carriage(); 
....................             set_x_pack_colour(pack_1, colour_GREEN); 
131A:  MOVLW  01
131C:  MOVWF  76
131E:  MOVLW  02
1320:  MOVWF  77
1322:  RCALL  1114
....................             ACTIVE_ANTENA_MODULE_active_antena_ON_MONKEYBOARD_DAB(); 
1324:  MOVLW  00
1326:  BTFSC  1B.2
1328:  MOVLW  01
132A:  MOVWF  66
132C:  MOVLW  00
132E:  BTFSC  1B.4
1330:  MOVLW  01
1332:  MOVWF  67
1334:  MOVLW  00
1336:  BTFSC  1B.3
1338:  MOVLW  01
133A:  MOVWF  68
133C:  MOVFF  66,70
1340:  CLRF   71
1342:  MOVFF  67,72
1346:  MOVWF  73
1348:  MOVFF  41,74
134C:  MOVLW  96
134E:  MOVWF  75
1350:  RCALL  112A
....................              
....................             //if (EQU_use_active_antena_val * Active_DAB_antena_hardware_setup) 
....................             //   set_x_pack_colour(pack_3, colour_RED); 
....................              
....................              
....................              
....................                //} 
....................   //          #endif 
....................             //TODO: w³¹czyæ radio ³acznie z prze³aczeniem wejœcia equalizera i ustawieniem gain wejœcia 
....................              
....................             break; 
1352:  BRA    152A
....................              
....................         case MENU_MODULE_MONKEYBOARD_AM_input:             
....................              
....................             //TODO: wy³¹czyæ wszystkie urz¹dzenia ³acznie z active antena, a po set kolor w³aczyæ w³aœciwe 
....................             MENU_MODULE_reset_all_devices(*which_device); 
1354:  MOVFF  63,03
1358:  MOVFF  62,FE9
135C:  MOVFF  63,FEA
1360:  MOVFF  FEF,66
1364:  RCALL  11A4
....................             //TODO: wy³¹czyæ wszystkie urz¹dzenia ³acznie z active antena, a po set kolor w³aczyæ w³aœciwe 
....................             //dbg_printf("%s%u",comunicate, *which_device); 
....................             dbg_printf("%s MKB_AM",comunicate); 
1366:  MOVLW  6C
1368:  MOVWF  FF6
136A:  MOVLW  02
136C:  MOVWF  FF7
136E:  CALL   07CC
1372:  MOVLW  9E
1374:  MOVWF  FF6
1376:  MOVLW  02
1378:  MOVWF  FF7
137A:  MOVLW  07
137C:  MOVWF  x81
137E:  CALL   089E
1382:  CALL   07EC
....................             //dbg_return_carriage(); 
....................             set_x_pack_colour(pack_1, colour_SKYBLUE); 
1386:  MOVLW  01
1388:  MOVWF  76
138A:  MOVLW  03
138C:  MOVWF  77
138E:  RCALL  1114
....................             ACTIVE_ANTENA_MODULE_active_antena_ON_MONKEYBOARD_FM_AM();  
1390:  MOVLW  00
1392:  BTFSC  1B.2
1394:  MOVLW  01
1396:  MOVWF  66
1398:  MOVLW  00
139A:  BTFSC  1B.4
139C:  MOVLW  01
139E:  MOVWF  68
13A0:  MOVLW  00
13A2:  BTFSC  1B.3
13A4:  MOVLW  01
13A6:  MOVWF  69
13A8:  MOVFF  66,70
13AC:  MOVFF  41,71
13B0:  MOVFF  68,72
13B4:  MOVWF  73
13B6:  CLRF   74
13B8:  MOVLW  96
13BA:  MOVWF  75
13BC:  RCALL  112A
....................             if (Active_FM_antena_hardware_setup * EQU_use_active_antena_val) 
13BE:  MOVLW  00
13C0:  BTFSC  1B.2
13C2:  MOVLW  01
13C4:  MOVWF  66
13C6:  MOVWF  67
13C8:  MOVFF  41,68
13CC:  BRA    11B8
13CE:  MOVF   01,W
13D0:  BZ    13DC
....................                set_x_pack_colour(pack_3, colour_RED); 
13D2:  MOVLW  03
13D4:  MOVWF  76
13D6:  MOVLW  04
13D8:  MOVWF  77
13DA:  RCALL  1114
....................              
....................                //} 
....................     //        #endif 
....................             //TODO: w³¹czyæ radio ³acznie z prze³aczeniem wejœcia equalizera i ustawieniem gain wejœcia 
....................              
....................             break; 
13DC:  BRA    152A
....................              
.................... #endif 
....................  
.................... #ifdef _USE_VMUSIC3_ 
....................         case MENU_MODULE_VMUSIC3_input: 
....................          
....................             //TODO: wy³¹czyæ wszystkie urz¹dzenia ³acznie z active antena, a po set kolor w³aczyæ w³aœciwe 
....................             MENU_MODULE_reset_all_devices(*which_device); 
13DE:  MOVFF  63,03
13E2:  MOVFF  62,FE9
13E6:  MOVFF  63,FEA
13EA:  MOVFF  FEF,66
13EE:  RCALL  11A4
....................             //TODO: wy³¹czyæ wszystkie urz¹dzenia ³acznie z active antena, a po set kolor w³aczyæ w³aœciwe 
....................             //dbg_printf("%s%u",comunicate, *which_device); 
....................             dbg_printf("%s VM3",comunicate); 
13F0:  MOVLW  6C
13F2:  MOVWF  FF6
13F4:  MOVLW  02
13F6:  MOVWF  FF7
13F8:  CALL   07CC
13FC:  MOVLW  A8
13FE:  MOVWF  FF6
1400:  MOVLW  02
1402:  MOVWF  FF7
1404:  MOVLW  04
1406:  MOVWF  x81
1408:  CALL   089E
140C:  CALL   07EC
....................             //dbg_return_carriage(); 
....................             //set_x_pack_colour(pack_1, colour_BLUE); 
....................             set_x_pack_colour(pack_1, colour_WHITE); 
1410:  MOVLW  01
1412:  MOVWF  76
1414:  MOVLW  07
1416:  MOVWF  77
1418:  RCALL  1114
....................              
....................             //TODO: w³¹czyæ urz¹dzenie ³acznie z prze³aczeniem wejœcia equalizera i ustawieniem gain wejœcia 
....................              
....................              
....................              
....................             break; 
141A:  BRA    152A
....................         case MENU_MODULE_VMUSIC3_RND_input: 
....................          
....................             //TODO: wy³¹czyæ wszystkie urz¹dzenia ³acznie z active antena, a po set kolor w³aczyæ w³aœciwe 
....................             MENU_MODULE_reset_all_devices(*which_device); 
141C:  MOVFF  63,03
1420:  MOVFF  62,FE9
1424:  MOVFF  63,FEA
1428:  MOVFF  FEF,66
142C:  RCALL  11A4
....................             //TODO: wy³¹czyæ wszystkie urz¹dzenia ³acznie z active antena, a po set kolor w³aczyæ w³aœciwe 
....................             //dbg_printf("%s%u",comunicate, *which_device); 
....................             dbg_printf("%s VM3_RND",comunicate); 
142E:  MOVLW  6C
1430:  MOVWF  FF6
1432:  MOVLW  02
1434:  MOVWF  FF7
1436:  CALL   07CC
143A:  MOVLW  B0
143C:  MOVWF  FF6
143E:  MOVLW  02
1440:  MOVWF  FF7
1442:  MOVLW  08
1444:  MOVWF  x81
1446:  CALL   089E
144A:  CALL   07EC
....................             //dbg_return_carriage(); 
....................             set_x_pack_colour(pack_1, colour_YELLOW); 
144E:  MOVLW  01
1450:  MOVWF  76
1452:  MOVLW  06
1454:  MOVWF  77
1456:  RCALL  1114
....................             //TODO: w³¹czyæ urz¹dzenie ³acznie z prze³aczeniem wejœcia equalizera i ustawieniem gain wejœcia 
....................              
....................              
....................             break; 
1458:  BRA    152A
.................... #endif 
....................  
.................... #ifdef _USE_BLUETOOTH_ 
....................         case MENU_MODULE_BLUETOOTH_input: 
....................          
....................             //TODO: wy³¹czyæ wszystkie urz¹dzenia ³acznie z active antena, a po set kolor w³aczyæ w³aœciwe 
....................             MENU_MODULE_reset_all_devices(*which_device); 
145A:  MOVFF  63,03
145E:  MOVFF  62,FE9
1462:  MOVFF  63,FEA
1466:  MOVFF  FEF,66
146A:  RCALL  11A4
....................             //TODO: wy³¹czyæ wszystkie urz¹dzenia ³acznie z active antena, a po set kolor w³aczyæ w³aœciwe 
....................             //dbg_printf("%s%u",comunicate, *which_device); 
....................             dbg_printf("%s BLUE",comunicate); 
146C:  MOVLW  6C
146E:  MOVWF  FF6
1470:  MOVLW  02
1472:  MOVWF  FF7
1474:  CALL   07CC
1478:  MOVLW  BC
147A:  MOVWF  FF6
147C:  MOVLW  02
147E:  MOVWF  FF7
1480:  MOVLW  05
1482:  MOVWF  x81
1484:  CALL   089E
1488:  CALL   07EC
....................             //dbg_return_carriage(); 
....................              
....................              
....................             //set_x_pack_colour(pack_1, colour_WHITE); 
....................             set_x_pack_colour(pack_1, colour_BLUE); 
148C:  MOVLW  01
148E:  MOVWF  76
1490:  MOVWF  77
1492:  RCALL  1114
....................              
....................             //TODO: w³¹czyæ urz¹dzenie ³acznie z prze³aczeniem wejœcia equalizera i ustawieniem gain wejœcia         
....................             break; 
1494:  BRA    152A
....................          
....................  
.................... #endif 
....................  
.................... #ifdef _USE_AUX_ 
....................         case MENU_MODULE_AUX_input : 
....................          
....................             //TODO: wy³¹czyæ wszystkie urz¹dzenia ³acznie z active antena, a po set kolor w³aczyæ w³aœciwe 
....................             MENU_MODULE_reset_all_devices(*which_device); 
1496:  MOVFF  63,03
149A:  MOVFF  62,FE9
149E:  MOVFF  63,FEA
14A2:  MOVFF  FEF,66
14A6:  RCALL  11A4
....................             //TODO: wy³¹czyæ wszystkie urz¹dzenia ³acznie z active antena, a po set kolor w³aczyæ w³aœciwe 
....................             //dbg_printf("%s%u",comunicate, *which_device); 
....................             dbg_printf("%s AUX",comunicate); 
14A8:  MOVLW  6C
14AA:  MOVWF  FF6
14AC:  MOVLW  02
14AE:  MOVWF  FF7
14B0:  CALL   07CC
14B4:  MOVLW  C4
14B6:  MOVWF  FF6
14B8:  MOVLW  02
14BA:  MOVWF  FF7
14BC:  MOVLW  04
14BE:  MOVWF  x81
14C0:  CALL   089E
14C4:  CALL   07EC
....................             //dbg_return_carriage(); 
....................             set_x_pack_colour(pack_1, colour_PURPLE); 
14C8:  MOVLW  01
14CA:  MOVWF  76
14CC:  MOVLW  05
14CE:  MOVWF  77
14D0:  RCALL  1114
....................             //TODO: w³¹czyæ urz¹dzenie ³acznie z prze³aczeniem wejœcia equalizera i ustawieniem gain wejœcia 
....................              
....................              
....................             break; 
14D2:  BRA    152A
.................... #endif 
....................         case MENU_MODULE_NOTSUPPORTED_input : 
....................  
....................             dbg_printf("Dev %u not suppotred", *which_device); 
14D4:  MOVFF  63,03
14D8:  MOVFF  62,FE9
14DC:  MOVFF  63,FEA
14E0:  MOVFF  FEF,65
14E4:  MOVLW  CA
14E6:  MOVWF  FF6
14E8:  MOVLW  02
14EA:  MOVWF  FF7
14EC:  MOVLW  04
14EE:  MOVWF  x81
14F0:  CALL   089E
14F4:  MOVFF  65,66
14F8:  MOVLW  1B
14FA:  MOVWF  67
14FC:  RCALL  10A8
14FE:  MOVLW  D0
1500:  MOVWF  FF6
1502:  MOVLW  02
1504:  MOVWF  FF7
1506:  MOVLW  0E
1508:  MOVWF  x81
150A:  CALL   089E
150E:  CALL   07EC
....................             //dbg_return_carriage(); 
....................  
....................             is_dev_already_starter = TRUE;   //fake 1st run - potrzebne aby przeskoczyï¿½ sprzet nie obsï¿½ugiwany przez firmwarer 
1512:  BSF    64.0
....................             *which_device=*which_device+1; 
1514:  MOVFF  62,FE9
1518:  MOVFF  63,FEA
151C:  MOVLW  01
151E:  ADDWF  FEF,W
1520:  MOVFF  63,FEA
1524:  MOVFF  62,FE9
1528:  MOVWF  FEF
....................             break; 
....................         } 
....................     return is_dev_already_starter; 
152A:  MOVLW  00
152C:  BTFSC  64.0
152E:  MOVLW  01
1530:  MOVWF  01
1532:  GOTO   22D8 (RETURN)
....................     } 
....................  
.................... void MENU_MODULE_audio_device_step_action(int which_device, int direction_UP_DOWN) 
....................     { 
....................     char direction[13]; 
....................     switch (direction_UP_DOWN) 
*
1588:  MOVF   63,W
158A:  ADDLW  FB
158C:  BC    15FA
158E:  ADDLW  05
1590:  GOTO   171E
....................         { 
....................         case MENU_MODULE_audio_device_stepUP: 
....................             strcpy(direction,"stepUP"); 
1594:  CLRF   FEA
1596:  MOVLW  64
1598:  MOVWF  FE9
159A:  MOVLW  00
159C:  CALL   00D2
15A0:  TBLRD*-
15A2:  TBLRD*+
15A4:  MOVF   FF5,W
15A6:  MOVWF  FEE
15A8:  IORLW  00
15AA:  BNZ   15A2
....................             break; 
15AC:  BRA    15FA
....................         case MENU_MODULE_audio_device_stepDOWN: 
....................             strcpy(direction,"stepDOWN"); 
15AE:  CLRF   FEA
15B0:  MOVLW  64
15B2:  MOVWF  FE9
15B4:  MOVLW  00
15B6:  CALL   00EA
15BA:  TBLRD*-
15BC:  TBLRD*+
15BE:  MOVF   FF5,W
15C0:  MOVWF  FEE
15C2:  IORLW  00
15C4:  BNZ   15BC
....................             break; 
15C6:  BRA    15FA
....................         case MENU_MODULE_audio_device_auto_tuneUP: 
....................             strcpy(direction,"autoTuneUP"); 
15C8:  CLRF   FEA
15CA:  MOVLW  64
15CC:  MOVWF  FE9
15CE:  MOVLW  00
15D0:  CALL   0104
15D4:  TBLRD*-
15D6:  TBLRD*+
15D8:  MOVF   FF5,W
15DA:  MOVWF  FEE
15DC:  IORLW  00
15DE:  BNZ   15D6
....................             break; 
15E0:  BRA    15FA
....................         case MENU_MODULE_audio_device_auto_tuneDOWN: 
....................             strcpy(direction,"autoTuneDOWN"); 
15E2:  CLRF   FEA
15E4:  MOVLW  64
15E6:  MOVWF  FE9
15E8:  MOVLW  00
15EA:  CALL   0120
15EE:  TBLRD*-
15F0:  TBLRD*+
15F2:  MOVF   FF5,W
15F4:  MOVWF  FEE
15F6:  IORLW  00
15F8:  BNZ   15F0
....................         } 
....................     switch (MENU_MODULE_audio_devices_list[which_device]) 
15FA:  CLRF   03
15FC:  MOVF   62,W
15FE:  CALL   00BA
1602:  MOVWF  01
1604:  ADDLW  F7
1606:  BTFSC  FD8.0
1608:  BRA    171C
160A:  ADDLW  09
160C:  GOTO   1742
....................         { 
.................... #ifdef _USE_TEA5767_ 
....................         case MENU_MODULE_TEA5767_input: 
....................             dbg_printf("TEA5767 %s",direction); 
1610:  MOVLW  E0
1612:  MOVWF  FF6
1614:  MOVLW  02
1616:  MOVWF  FF7
1618:  MOVLW  08
161A:  MOVWF  x81
161C:  CALL   089E
1620:  CLRF   FEA
1622:  MOVLW  64
1624:  MOVWF  FE9
1626:  RCALL  1562
1628:  CALL   07EC
....................             //dbg_return_carriage(); 
....................             break; 
162C:  BRA    171C
.................... #endif 
.................... #ifdef _USE_MNONKEYBOARD_DAB_ 
....................         case MENU_MODULE_MONKEYBOARD_FM_input: 
....................             dbg_printf("MonkeyBoard FM %s",direction); 
162E:  MOVLW  EC
1630:  MOVWF  FF6
1632:  MOVLW  02
1634:  MOVWF  FF7
1636:  MOVLW  0F
1638:  MOVWF  x81
163A:  CALL   089E
163E:  CLRF   FEA
1640:  MOVLW  64
1642:  MOVWF  FE9
1644:  RCALL  1562
1646:  CALL   07EC
....................             //dbg_return_carriage(); 
....................             break; 
164A:  BRA    171C
....................         case MENU_MODULE_MONKEYBOARD_DAB_input: 
....................             dbg_printf("MonkeyBoard DAB+ %s",direction); 
164C:  MOVLW  FE
164E:  MOVWF  FF6
1650:  MOVLW  02
1652:  MOVWF  FF7
1654:  MOVLW  11
1656:  MOVWF  x81
1658:  CALL   089E
165C:  CLRF   FEA
165E:  MOVLW  64
1660:  MOVWF  FE9
1662:  RCALL  1562
1664:  CALL   07EC
....................             //dbg_return_carriage(); 
....................             break; 
1668:  BRA    171C
....................  
....................         case MENU_MODULE_MONKEYBOARD_AM_input: 
....................             dbg_printf("MonkeyBoard AM %s",direction); 
166A:  MOVLW  12
166C:  MOVWF  FF6
166E:  MOVLW  03
1670:  MOVWF  FF7
1672:  MOVLW  0F
1674:  MOVWF  x81
1676:  CALL   089E
167A:  CLRF   FEA
167C:  MOVLW  64
167E:  MOVWF  FE9
1680:  RCALL  1562
1682:  CALL   07EC
....................             //dbg_return_carriage(); 
....................             break; 
1686:  BRA    171C
....................              
....................              
.................... #endif 
.................... #ifdef _USE_VMUSIC3_ 
....................         case MENU_MODULE_VMUSIC3_input: 
....................             dbg_printf("VMusic %s",direction); 
1688:  MOVLW  24
168A:  MOVWF  FF6
168C:  MOVLW  03
168E:  MOVWF  FF7
1690:  MOVLW  07
1692:  MOVWF  x81
1694:  CALL   089E
1698:  CLRF   FEA
169A:  MOVLW  64
169C:  MOVWF  FE9
169E:  RCALL  1562
16A0:  CALL   07EC
....................             //dbg_return_carriage(); 
....................             break; 
16A4:  BRA    171C
....................         case MENU_MODULE_VMUSIC3_RND_input: 
....................             dbg_printf("VMusic RDN %s",direction); 
16A6:  MOVLW  2E
16A8:  MOVWF  FF6
16AA:  MOVLW  03
16AC:  MOVWF  FF7
16AE:  MOVLW  0B
16B0:  MOVWF  x81
16B2:  CALL   089E
16B6:  CLRF   FEA
16B8:  MOVLW  64
16BA:  MOVWF  FE9
16BC:  RCALL  1562
16BE:  CALL   07EC
....................             //dbg_return_carriage(); 
....................             break; 
16C2:  BRA    171C
.................... #endif 
....................  
.................... #ifdef _USE_BLUETOOTH_ 
....................         case MENU_MODULE_BLUETOOTH_input: 
....................             dbg_printf("BLUETOOTH %s",direction); 
16C4:  MOVLW  3C
16C6:  MOVWF  FF6
16C8:  MOVLW  03
16CA:  MOVWF  FF7
16CC:  MOVLW  0A
16CE:  MOVWF  x81
16D0:  CALL   089E
16D4:  CLRF   FEA
16D6:  MOVLW  64
16D8:  MOVWF  FE9
16DA:  RCALL  1562
16DC:  CALL   07EC
....................             //dbg_return_carriage(); 
....................             break; 
16E0:  BRA    171C
.................... #endif 
....................  
.................... #ifdef _USE_AUX_ 
....................         case MENU_MODULE_AUX_input : 
....................             dbg_printf("AUX %s",direction); 
16E2:  MOVLW  4A
16E4:  MOVWF  FF6
16E6:  MOVLW  03
16E8:  MOVWF  FF7
16EA:  MOVLW  04
16EC:  MOVWF  x81
16EE:  CALL   089E
16F2:  CLRF   FEA
16F4:  MOVLW  64
16F6:  MOVWF  FE9
16F8:  RCALL  1562
16FA:  CALL   07EC
....................             //dbg_return_carriage(); 
....................             break; 
16FE:  BRA    171C
.................... #endif 
....................         case MENU_MODULE_NOTSUPPORTED_input : 
....................             dbg_printf("Dev not suppotred %s",direction); 
1700:  MOVLW  52
1702:  MOVWF  FF6
1704:  MOVLW  03
1706:  MOVWF  FF7
1708:  MOVLW  12
170A:  MOVWF  x81
170C:  CALL   089E
1710:  CLRF   FEA
1712:  MOVLW  64
1714:  MOVWF  FE9
1716:  RCALL  1562
1718:  CALL   07EC
....................             //dbg_return_carriage(); 
....................              
....................             break; 
....................         } 
171C:  RETURN 0
....................     } 
....................  
.................... void MENU_MODULE_submenu_action(int which_submenu, int1 direction_UP_DOWN, int8 which_device) 
....................     { 
.................... //void MENU_MODULE_submenu_action(unsigned int which_submenu, int1 direction_UP_DOWN){ 
....................     char direction[5]; 
....................     if (direction_UP_DOWN == MENU_MODULE_EQUALISER_direct_UP) 
*
187C:  DECFSZ 64,W
187E:  BRA    189A
....................         { 
....................         strcpy(direction,"UP"); 
1880:  CLRF   FEA
1882:  MOVLW  66
1884:  MOVWF  FE9
1886:  MOVLW  00
1888:  CALL   013E
188C:  TBLRD*-
188E:  TBLRD*+
1890:  MOVF   FF5,W
1892:  MOVWF  FEE
1894:  IORLW  00
1896:  BNZ   188E
....................         } 
1898:  BRA    18B2
....................     else 
....................         { 
....................         strcpy(direction,"DOWN"); 
189A:  CLRF   FEA
189C:  MOVLW  66
189E:  MOVWF  FE9
18A0:  MOVLW  00
18A2:  CALL   0152
18A6:  TBLRD*-
18A8:  TBLRD*+
18AA:  MOVF   FF5,W
18AC:  MOVWF  FEE
18AE:  IORLW  00
18B0:  BNZ   18A8
....................         } 
....................  
....................     switch (which_submenu) 
18B2:  MOVF   63,W
18B4:  ADDLW  F7
18B6:  BTFSC  FD8.0
18B8:  BRA    1AD6
18BA:  ADDLW  09
18BC:  GOTO   1AD8
....................         { 
.................... //#ifdef _USE_ACTIVE_ANTENA_ 
....................         case MENU_MODULE_EQUALISER_MENU_ACTIVE_ANTENA: 
....................             dbg_printf("Active Antena:%s", direction); 
18C0:  MOVLW  68
18C2:  MOVWF  FF6
18C4:  MOVLW  03
18C6:  MOVWF  FF7
18C8:  MOVLW  0E
18CA:  MOVWF  x81
18CC:  CALL   089E
18D0:  CLRF   FEA
18D2:  MOVLW  66
18D4:  MOVWF  FE9
18D6:  RCALL  1562
18D8:  CALL   07EC
....................             //dbg_return_carriage(); 
....................             switch(direction_UP_DOWN) 
18DC:  MOVF   64,W
18DE:  BZ    18E6
18E0:  XORLW  01
18E2:  BZ    1918
18E4:  BRA    19AE
....................             { 
....................             case MENU_MODULE_EQUALISER_direct_DOWN: 
....................                EQU_use_active_antena_val=EQU_use_active_antena_val-1; 
18E6:  MOVLW  01
18E8:  SUBWF  41,F
....................                ACTIVE_ANTENA_MODULE_active_antena_OFF(); 
18EA:  RCALL  118A
....................                #ifdef _USE_MNONKEYBOARD_DAB_ 
....................                if ((which_device == MENU_MODULE_MONKEYBOARD_FM_input)||(which_device == MENU_MODULE_MONKEYBOARD_AM_input)||(which_device == MENU_MODULE_MONKEYBOARD_DAB_input)) 
18EC:  DECFSZ 65,W
18EE:  BRA    18F2
18F0:  BRA    18FE
18F2:  MOVF   65,W
18F4:  SUBLW  03
18F6:  BZ    18FE
18F8:  MOVF   65,W
18FA:  SUBLW  02
18FC:  BNZ   1916
....................                    ACTIVE_ANTENA_MODULE_active_antena_ON_MONKEYBOARD_CONVERTER(); 
18FE:  MOVLW  00
1900:  BTFSC  1B.4
1902:  MOVLW  01
1904:  MOVWF  6C
1906:  CLRF   70
1908:  CLRF   71
190A:  MOVWF  72
190C:  CLRF   73
190E:  CLRF   74
1910:  MOVLW  96
1912:  MOVWF  75
1914:  RCALL  112A
....................                 #endif                    
....................                break; 
1916:  BRA    19AE
....................             case MENU_MODULE_EQUALISER_direct_UP: 
....................                EQU_use_active_antena_val=EQU_use_active_antena_val+1; 
1918:  MOVLW  01
191A:  ADDWF  41,F
....................                 
....................                #ifdef _USE_TEA5767_ 
....................                if (which_device == MENU_MODULE_TEA5767_input) 
191C:  MOVF   65,F
191E:  BNZ   193C
....................                { 
....................                   ACTIVE_ANTENA_MODULE_active_antena_ON_TEA_5756(); 
1920:  MOVLW  00
1922:  BTFSC  1B.2
1924:  MOVLW  01
1926:  MOVWF  6C
1928:  MOVWF  70
192A:  MOVFF  41,71
192E:  CLRF   72
1930:  CLRF   73
1932:  CLRF   74
1934:  MOVLW  96
1936:  MOVWF  75
1938:  CALL   112A
....................                } 
....................                #endif 
....................                 
....................                #ifdef _USE_MNONKEYBOARD_DAB_ 
....................                if ((which_device == MENU_MODULE_MONKEYBOARD_FM_input)||(which_device == MENU_MODULE_MONKEYBOARD_AM_input)) 
193C:  DECFSZ 65,W
193E:  BRA    1942
1940:  BRA    1948
1942:  MOVF   65,W
1944:  SUBLW  03
1946:  BNZ   1978
....................                { 
....................                   ACTIVE_ANTENA_MODULE_active_antena_ON_MONKEYBOARD_FM_AM(); 
1948:  MOVLW  00
194A:  BTFSC  1B.2
194C:  MOVLW  01
194E:  MOVWF  6C
1950:  MOVLW  00
1952:  BTFSC  1B.4
1954:  MOVLW  01
1956:  MOVWF  6E
1958:  MOVLW  00
195A:  BTFSC  1B.3
195C:  MOVLW  01
195E:  MOVWF  6F
1960:  MOVFF  6C,70
1964:  MOVFF  41,71
1968:  MOVFF  6E,72
196C:  MOVWF  73
196E:  CLRF   74
1970:  MOVLW  96
1972:  MOVWF  75
1974:  CALL   112A
....................                } 
....................                 
....................                if (which_device == MENU_MODULE_MONKEYBOARD_DAB_input) 
1978:  MOVF   65,W
197A:  SUBLW  02
197C:  BNZ   19AE
....................                { 
....................                   ACTIVE_ANTENA_MODULE_active_antena_ON_MONKEYBOARD_DAB(); 
197E:  MOVLW  00
1980:  BTFSC  1B.2
1982:  MOVLW  01
1984:  MOVWF  6C
1986:  MOVLW  00
1988:  BTFSC  1B.4
198A:  MOVLW  01
198C:  MOVWF  6D
198E:  MOVLW  00
1990:  BTFSC  1B.3
1992:  MOVLW  01
1994:  MOVWF  6E
1996:  MOVFF  6C,70
199A:  CLRF   71
199C:  MOVFF  6D,72
19A0:  MOVWF  73
19A2:  MOVFF  41,74
19A6:  MOVLW  96
19A8:  MOVWF  75
19AA:  CALL   112A
....................                } 
....................                #endif 
....................                break; 
....................             }    
....................             MENU_MODULE_check_variable_boarders(&EQU_use_active_antena_val,active_antena_MIN_VAL, active_antena_MAX_VAL);          
19AE:  CLRF   6C
19B0:  MOVLW  41
19B2:  MOVWF  6B
19B4:  CLRF   6D
19B6:  MOVLW  01
19B8:  MOVWF  6E
19BA:  RCALL  1824
....................             break; 
19BC:  BRA    1AD6
.................... //#endif 
....................         case MENU_MODULE_EQUALISER_MENU_Treble: 
....................  
....................             dbg_printf("Treble:%s", direction); 
19BE:  MOVLW  7A
19C0:  MOVWF  FF6
19C2:  MOVLW  03
19C4:  MOVWF  FF7
19C6:  MOVLW  07
19C8:  MOVWF  x81
19CA:  CALL   089E
19CE:  CLRF   FEA
19D0:  MOVLW  66
19D2:  MOVWF  FE9
19D4:  RCALL  1562
19D6:  CALL   07EC
....................             //dbg_return_carriage(); 
....................             break; 
19DA:  BRA    1AD6
....................         case MENU_MODULE_EQUALISER_MENU_Middle: 
....................  
....................             dbg_printf("Middle:%s", direction); 
19DC:  MOVLW  84
19DE:  MOVWF  FF6
19E0:  MOVLW  03
19E2:  MOVWF  FF7
19E4:  MOVLW  07
19E6:  MOVWF  x81
19E8:  CALL   089E
19EC:  CLRF   FEA
19EE:  MOVLW  66
19F0:  MOVWF  FE9
19F2:  RCALL  1562
19F4:  CALL   07EC
....................             //dbg_return_carriage(); 
....................  
....................             break; 
19F8:  BRA    1AD6
....................         case MENU_MODULE_EQUALISER_MENU_Bass: 
....................  
....................             dbg_printf("Bass:%s", direction); 
19FA:  MOVLW  8E
19FC:  MOVWF  FF6
19FE:  MOVLW  03
1A00:  MOVWF  FF7
1A02:  MOVLW  05
1A04:  MOVWF  x81
1A06:  CALL   089E
1A0A:  CLRF   FEA
1A0C:  MOVLW  66
1A0E:  MOVWF  FE9
1A10:  RCALL  1562
1A12:  CALL   07EC
....................             //dbg_return_carriage(); 
....................  
....................             break; 
1A16:  BRA    1AD6
....................         case MENU_MODULE_EQUALISER_MENU_Low_HighBoost: 
....................  
....................             dbg_printf("L_H_Boost:%s", direction); 
1A18:  MOVLW  96
1A1A:  MOVWF  FF6
1A1C:  MOVLW  03
1A1E:  MOVWF  FF7
1A20:  MOVLW  0A
1A22:  MOVWF  x81
1A24:  CALL   089E
1A28:  CLRF   FEA
1A2A:  MOVLW  66
1A2C:  MOVWF  FE9
1A2E:  RCALL  1562
1A30:  CALL   07EC
....................             //dbg_return_carriage(); 
....................  
....................             break; 
1A34:  BRA    1AD6
....................         case MENU_MODULE_EQUALISER_MENU_Left_Right: 
....................  
....................             dbg_printf("Left-Right:%s", direction); 
1A36:  MOVLW  A4
1A38:  MOVWF  FF6
1A3A:  MOVLW  03
1A3C:  MOVWF  FF7
1A3E:  MOVLW  0B
1A40:  MOVWF  x81
1A42:  CALL   089E
1A46:  CLRF   FEA
1A48:  MOVLW  66
1A4A:  MOVWF  FE9
1A4C:  RCALL  1562
1A4E:  CALL   07EC
....................             //dbg_return_carriage(); 
....................  
....................             break; 
1A52:  BRA    1AD6
....................         case MENU_MODULE_EQUALISER_MENU_Front_Rear: 
....................  
....................             dbg_printf("Front-Rear:%s", direction); 
1A54:  MOVLW  B2
1A56:  MOVWF  FF6
1A58:  MOVLW  03
1A5A:  MOVWF  FF7
1A5C:  MOVLW  0B
1A5E:  MOVWF  x81
1A60:  CALL   089E
1A64:  CLRF   FEA
1A66:  MOVLW  66
1A68:  MOVWF  FE9
1A6A:  RCALL  1562
1A6C:  CALL   07EC
....................             //dbg_return_carriage(); 
....................  
....................             break; 
1A70:  BRA    1AD6
.................... #ifdef _USE_BACKLIGHT_ 
....................          case MENU_MODULE_EQUALISER_MENU_Backlight: 
....................             dbg_printf("Backlight:%s", direction); 
1A72:  MOVLW  C0
1A74:  MOVWF  FF6
1A76:  MOVLW  03
1A78:  MOVWF  FF7
1A7A:  MOVLW  0A
1A7C:  MOVWF  x81
1A7E:  CALL   089E
1A82:  CLRF   FEA
1A84:  MOVLW  66
1A86:  MOVWF  FE9
1A88:  RCALL  1562
1A8A:  CALL   07EC
....................             //dbg_return_carriage(); 
....................             switch(direction_UP_DOWN) 
1A8E:  MOVF   64,W
1A90:  BZ    1A98
1A92:  XORLW  01
1A94:  BZ    1A9E
1A96:  BRA    1AA2
....................             { 
....................             case MENU_MODULE_EQUALISER_direct_DOWN: 
....................                EQU_Backlight_value=EQU_Backlight_value-1; 
1A98:  MOVLW  01
1A9A:  SUBWF  42,F
....................                break; 
1A9C:  BRA    1AA2
....................             case MENU_MODULE_EQUALISER_direct_UP: 
....................                EQU_Backlight_value=EQU_Backlight_value+1; 
1A9E:  MOVLW  01
1AA0:  ADDWF  42,F
....................                break; 
....................             }       
....................             //Backlight_value=check_boarders(Backlight_value, Backlight_MIN_VAL, Backlight_MAX_VAL); 
....................              
....................             MENU_MODULE_check_variable_boarders(&EQU_Backlight_value, Backlight_MIN_VAL, Backlight_MAX_VAL); 
1AA2:  CLRF   6C
1AA4:  MOVLW  42
1AA6:  MOVWF  6B
1AA8:  CLRF   6D
1AAA:  MOVLW  01
1AAC:  MOVWF  6E
1AAE:  RCALL  1824
....................              
....................             set_backlight(EQU_Backlight_value); 
1AB0:  MOVFF  42,6B
1AB4:  CALL   0FEC
....................             break;            
1AB8:  BRA    1AD6
.................... #endif         
....................         case MENU_MODULE_EQUALISER_MENU_ERROR: 
....................             dbg_printf("EQ !supp.:%s", direction); 
1ABA:  MOVLW  CE
1ABC:  MOVWF  FF6
1ABE:  MOVLW  03
1AC0:  MOVWF  FF7
1AC2:  MOVLW  0A
1AC4:  MOVWF  x81
1AC6:  CALL   089E
1ACA:  CLRF   FEA
1ACC:  MOVLW  66
1ACE:  MOVWF  FE9
1AD0:  RCALL  1562
1AD2:  CALL   07EC
....................             //dbg_return_carriage(); 
....................             break; 
....................         } 
1AD6:  RETURN 0
....................     } 
....................  
.................... void MENU_MODULE_submenu_set_LED(int which_submenu) 
.................... { 
....................     switch (which_submenu) 
*
1786:  MOVF   62,W
1788:  ADDLW  F8
178A:  BC    17F6
178C:  ADDLW  08
178E:  GOTO   17FA
....................          { 
....................          case MENU_MODULE_EQUALISER_MENU_ACTIVE_ANTENA: 
....................             set_x_pack_colour(pack_2, colour_RED); 
1792:  MOVLW  02
1794:  MOVWF  76
1796:  MOVLW  04
1798:  MOVWF  77
179A:  RCALL  1114
....................             break; 
179C:  BRA    17F6
....................          case MENU_MODULE_EQUALISER_MENU_Treble: 
....................             set_x_pack_colour(pack_2, colour_GREEN); 
179E:  MOVLW  02
17A0:  MOVWF  76
17A2:  MOVWF  77
17A4:  RCALL  1114
....................             break; 
17A6:  BRA    17F6
....................          case MENU_MODULE_EQUALISER_MENU_Middle: 
....................             set_x_pack_colour(pack_2, colour_BLUE); 
17A8:  MOVLW  02
17AA:  MOVWF  76
17AC:  MOVLW  01
17AE:  MOVWF  77
17B0:  RCALL  1114
....................             break; 
17B2:  BRA    17F6
....................          case MENU_MODULE_EQUALISER_MENU_Bass: 
....................             set_x_pack_colour(pack_2, colour_YELLOW); 
17B4:  MOVLW  02
17B6:  MOVWF  76
17B8:  MOVLW  06
17BA:  MOVWF  77
17BC:  RCALL  1114
....................             break; 
17BE:  BRA    17F6
....................          case MENU_MODULE_EQUALISER_MENU_Low_HighBoost: 
....................             set_x_pack_colour(pack_2, colour_PURPLE); 
17C0:  MOVLW  02
17C2:  MOVWF  76
17C4:  MOVLW  05
17C6:  MOVWF  77
17C8:  RCALL  1114
....................             break; 
17CA:  BRA    17F6
....................          case MENU_MODULE_EQUALISER_MENU_Left_Right: 
....................             set_blink_x_pack(pack_2, colour_SKYBLUE, colour_WHITE); 
17CC:  MOVLW  02
17CE:  MOVWF  63
17D0:  MOVLW  03
17D2:  MOVWF  64
17D4:  MOVLW  07
17D6:  MOVWF  65
17D8:  RCALL  176E
....................             //set_x_pack_colour(pack_2, colour_SKYBLUE); 
....................             break; 
17DA:  BRA    17F6
....................          case MENU_MODULE_EQUALISER_MENU_Front_Rear: 
....................             set_blink_x_pack(pack_2, colour_BLACK, colour_SKYBLUE); 
17DC:  MOVLW  02
17DE:  MOVWF  63
17E0:  MOVLW  87
17E2:  MOVWF  64
17E4:  MOVLW  03
17E6:  MOVWF  65
17E8:  RCALL  176E
....................             break; 
17EA:  BRA    17F6
....................          #ifdef _USE_BACKLIGHT_ 
....................          case MENU_MODULE_EQUALISER_MENU_Backlight: 
....................             set_x_pack_colour(pack_2, colour_WHITE); 
17EC:  MOVLW  02
17EE:  MOVWF  76
17F0:  MOVLW  07
17F2:  MOVWF  77
17F4:  RCALL  1114
....................             break; 
....................          #endif 
....................          } 
17F6:  GOTO   2484 (RETURN)
.................... } 
....................  
.................... void MENU_MODULE_submenu_clear_LED(int _main_menu) 
.................... { 
....................    //if (_main_menu==MENU_MODULE_EQUALIZER_menu) 
....................     
....................    if (_main_menu!=MENU_MODULE_PLAY_menu) 
*
1098:  MOVF   62,W
109A:  SUBLW  02
109C:  BZ    10A4
....................       { 
....................       clrl_x_pack(pack_2); 
109E:  MOVLW  02
10A0:  MOVWF  63
10A2:  BRA    1084
....................       } 
10A4:  GOTO   224C (RETURN)
.................... } 
....................  
.................... #endif 
....................  
.................... /*extern unsigned int   MasterBuffer[I2C_BUFSIZE]; 
.................... extern unsigned int   SlaveBuffer[I2C_BUFSIZE];*/ 
.................... //extern unsigned int   MasterBuffer[i2c_mcu_Transmission_BUFSIZE ]; 
.................... //extern unsigned int   SlaveBuffer[i2c_mcu_Reception_BUFSIZE]; 
....................  
....................  
.................... #ifndef _I2C_ENGINE_ 
....................    #include </MCU_include/core/I2C_Engine/I2C_Engine.c> 
.................... #endif 
....................  
.................... //-----------------------------------------------------------// 
.................... //---------------- INTERRUPTS CONFIGURATION ---------------- // 
.................... //-----------------------------------------------------------//  
.................... /*Obs³uga przerwania klawiatury*/ 
....................  
.................... #ifndef __keyboard_interrupt__ 
.................... #INT_EXT 
.................... void  EXT_isr(void) 
....................     { 
....................     disable_interrupts(INT_TIMER1);    //wy³¹cza przerwanie timera, bardzo wa¿ne ¿eby zadzia³¹³a funkcja odsprzêglania drgaj¹cych styków 
*
0472:  BCF    F9D.0
....................     read_keyboard_value(); 
0474:  BRA    042A
....................     enable_interrupts(INT_TIMER1);    //w³¹cza przerwanie timera 
0476:  BSF    F9D.0
....................     } 
.................... #endif 
.................... /*Obs³uga przerwania klawiatury*/ 
....................  
.................... /*Obs³uga timera licz¹cego timeout w menu programu g³ównego*/ 
.................... #ifndef __timer_inetrrupt__ 
.................... #define __timer_inetrrupt__ 
0478:  BCF    FF2.1
047A:  GOTO   006C
.................... #INT_TIMER1 
.................... void  TIMER1_isr(void) 
....................     { 
....................     disable_interrupts(INT_EXT); 
*
0524:  BCF    FF2.4
....................     timer_overflow_counter ++; 
0526:  INCF   40,F
....................     timeout_occured = set_timer(timeout_time_in_seconds); 
0528:  MOVLW  0A
052A:  MOVWF  x8B
052C:  BRA    04E2
052E:  BCF    1B.1
0530:  BTFSC  01.0
0532:  BSF    1B.1
....................     enable_interrupts(INT_EXT); 
0534:  BSF    FF2.4
....................     } 
.................... #endif 
.................... /*Obs³uga timera licz¹cego timeout w menu programu g³ównego*/ 
.................... //-----------------------------------------------------------// 
.................... //---------------- INTERRUPTS CONFIGURATION ---------------- // 
.................... //-----------------------------------------------------------// 
....................  
.................... //#opt 11     //default: 9 
0536:  BCF    F9E.0
0538:  GOTO   006C
.................... #zero_ram 
.................... void main() 
*
1B04:  CLRF   FF8
1B06:  BCF    FD0.7
1B08:  BSF    07.7
1B0A:  MOVLW  FE
1B0C:  MOVWF  00
1B0E:  MOVLW  06
1B10:  MOVWF  01
1B12:  MOVLW  02
1B14:  MOVWF  FE9
1B16:  MOVLW  00
1B18:  MOVWF  FEA
1B1A:  CLRF   FEE
1B1C:  DECFSZ 00,F
1B1E:  BRA    1B1A
1B20:  DECFSZ 01,F
1B22:  BRA    1B1A
1B24:  BSF    F94.3
1B26:  BSF    F94.4
1B28:  MOVLW  31
1B2A:  MOVWF  FC8
1B2C:  MOVLW  28
1B2E:  MOVWF  FC6
1B30:  BSF    FC7.7
1B32:  BCF    FC7.6
1B34:  CLRF   19
1B36:  BSF    FB8.3
1B38:  MOVLW  81
1B3A:  MOVWF  FAF
1B3C:  MOVLW  00
1B3E:  MOVWF  FB0
1B40:  MOVLW  A6
1B42:  MOVWF  FAC
1B44:  MOVLW  90
1B46:  MOVWF  FAB
1B48:  NOP   
1B4A:  NOP   
1B4C:  BCF    F93.7
1B4E:  BSF    F8A.7
1B50:  CLRF   4B
1B52:  CLRF   4A
1B54:  MOVF   FC1,W
1B56:  ANDLW  C0
1B58:  IORLW  0F
1B5A:  MOVWF  FC1
1B5C:  MOVLW  07
1B5E:  MOVWF  FB4
....................     {   
....................     //i2cInit();  //nie wiem czy potrzebne 
....................     delay_ms(1500); 
1B60:  MOVLW  06
1B62:  MOVWF  62
1B64:  MOVLW  FA
1B66:  MOVWF  76
1B68:  CALL   0766
1B6C:  DECFSZ 62,F
1B6E:  BRA    1B64
....................     dbg_printf(master_fw_version __DATE__ " " __TIME__); 
1B70:  MOVLW  3C
1B72:  MOVWF  FF6
1B74:  MOVLW  05
1B76:  MOVWF  FF7
1B78:  CALL   07CC
1B7C:  CALL   07EC
....................     //dbg_return_carriage(); 
....................     //Brown-out routine // 
....................      
....................     /*fprintf(Hardware__comm_port,"aaaa"); 
....................     delay_ms(1); 
....................     set_uart_speed(57600, Hardware__comm_port); 
....................     delay_ms(1); 
....................     fprintf(Hardware__comm_port,"bbbb");*/ 
....................      
....................   #if getenv("SFR_VALID:RCON") 
....................       //#warning   RCON getenv("SFR:RCON") 
....................       #byte      RCON = getenv("SFR:RCON") 
....................       //#warning   BOR getenv("SFR:RCON").0 
....................       #bit       BOR = RCON.0 
....................       BOR = 1; 
1B80:  BSF    FD0.0
....................       brownout_enable(True); 
1B82:  BSF    FD0.6
....................   #else 
....................       #warning   "This PIC do not have RCON register (BOR not possible) or if PIC have PCON register there is BOD" 
....................   #endif 
....................    
....................     //Brown-out routine // 
....................  
....................      { 
....................         int8 active_antena_power_setup = ACTIVE_ANTENA_MODULE_get_antena_power_setup_from_HMI(); 
1B84:  GOTO   0D06
1B88:  MOVFF  01,4C
....................         dbg_printf("Antena power setup:%x", active_antena_power_setup); 
1B8C:  MOVLW  5C
1B8E:  MOVWF  FF6
1B90:  MOVLW  05
1B92:  MOVWF  FF7
1B94:  MOVLW  13
1B96:  MOVWF  x81
1B98:  CALL   089E
1B9C:  MOVFF  4C,81
1BA0:  MOVLW  57
1BA2:  MOVWF  x82
1BA4:  CALL   08BC
1BA8:  CALL   07EC
....................         //dbg_return_carriage(); 
....................            
....................         Active_FM_antena_hardware_setup = active_antena_power_setup & IS_FM_ANT_ACTIVE_bit; 
1BAC:  MOVF   4C,W
1BAE:  ANDLW  01
1BB0:  BCF    1B.2
1BB2:  BTFSC  FE8.0
1BB4:  BSF    1B.2
....................         Active_DAB_antena_hardware_setup = (active_antena_power_setup & IS_DAB_ANT_ACTIVE_bit)>>1; 
1BB6:  MOVF   4C,W
1BB8:  ANDLW  02
1BBA:  MOVWF  00
1BBC:  BCF    FD8.0
1BBE:  RRCF   00,F
1BC0:  BCF    1B.3
1BC2:  BTFSC  00.0
1BC4:  BSF    1B.3
....................         Active_converter_antena_hardware_setup = (active_antena_power_setup & IS_FM_DAB_CONVERTER_bit)>>2; 
1BC6:  MOVF   4C,W
1BC8:  ANDLW  04
1BCA:  MOVWF  00
1BCC:  RRCF   00,F
1BCE:  RRCF   00,F
1BD0:  MOVLW  3F
1BD2:  ANDWF  00,F
1BD4:  BCF    1B.4
1BD6:  BTFSC  00.0
1BD8:  BSF    1B.4
....................      } 
....................      
....................      
....................     /*dbg_printf("percents"); 
....................     STEPPER_MOTOR_send_percentage(20.365); 
....................     STEPPER_MOTOR_send_absolut(0, 1000, 41); 
....................     STEPPER_MOTOR_send_absolut(-15, 15, 0); 
....................     STEPPER_MOTOR_send_percentage(15.555);   
....................     STEPPER_MOTOR_send_absolut(0, 100, 35); 
....................     //STEPPER_MOTOR_send_percentage(100);*/ 
....................     
....................      
....................     //dbg_printf("%x %x %x", Active_FM_antena_hardware_setup, Active_DAB_antena_hardware_setup,  Active_converter_antena_hardware_setup); 
....................      
....................     // czyszczenie EEPromu - w ostatecznej wresji programu mo¿esz z tego zrezygnowaæ, a mo¿e lepiej nie a na obudowie umieœciæ przycisk RESET EEPROM 
....................    if (input(button1)==1 && input(button2)==1 && input(button3)==1 && input(button4)==1) 
1BDA:  BSF    F92.4
1BDC:  BTFSS  F80.4
1BDE:  BRA    1BF6
1BE0:  BSF    F92.5
1BE2:  BTFSS  F80.5
1BE4:  BRA    1BF6
1BE6:  BSF    F96.0
1BE8:  BTFSS  F84.0
1BEA:  BRA    1BF6
1BEC:  BSF    F96.1
1BEE:  BTFSS  F84.1
1BF0:  BRA    1BF6
....................        { 
....................          eeprom_erease(); 
1BF2:  GOTO   0DAC
....................        } 
....................  
....................     //zmienne do obs³ugi menu radia    
....................     int8  main_menu    = MENU_MODULE_PLAY_menu;       // przechowuje informacjê na temat aktualnego menu w którym siê znajdujesz, na samym pocz¹tku program startuje w menu obs³ugi urz¹dzeñ graj¹cych 
....................     int8  back_to_menu = main_menu; 
....................     int1  device_already_started   = TRUE; 
....................     signed int   equaliser_submenu; 
....................     //zmienne do obs³ugi menu radia 
....................      
....................     // Zmienne trzymaj¹ce parametry radio zapisywane w EEPROM 
....................     signed int     _radio_1st_run; 
....................     signed int     audio_devices_playing_submenu; //RADIO_Input_value int //zmienna w menu radia  
....................     signed int32   FM_freuency_value; //FM_91000000 hz 
....................     signed int32   AM_freuency_value; //AM_522000 hz 
1BF6:  MOVLW  02
1BF8:  MOVWF  4D
1BFA:  MOVFF  4D,4E
1BFE:  BSF    4F.0
....................  
....................      
....................     //TODO: AM FREQ 
....................     //TODO: DAB_freuency_value 
....................  
....................      
....................    //TODO:    #define DAB_freuency_DEFAULT_VAL 
....................    //TODO:     #define Backlight_DEFAULT_VAL     
....................     // Zmienne trzymaj¹ce parametry radio zapisywane w EEPROM 
....................  
.................... //-----------------------------------------------------------// 
.................... //------------ READ EEPROM RADIO CONFIGURATION ------------- // 
.................... //-----------------------------------------------------------//   
....................        { 
....................        EEPROM_MODULE_READ_radio_1st_run();         //czyta wartoœæ _radio_1st_run z EEPROM 
1C00:  CLRF   63
1C02:  CLRF   62
1C04:  CLRF   65
1C06:  MOVLW  51
1C08:  MOVWF  64
1C0A:  CLRF   67
1C0C:  MOVLW  01
1C0E:  MOVWF  66
1C10:  CALL   0DE2
....................  
....................        if (_radio_1st_run!=1) 
1C14:  DECFSZ 51,W
1C16:  BRA    1C1A
1C18:  BRA    1DE8
....................           { 
....................           dbg_printf("Radio 1st run.Set default vals"); 
1C1A:  MOVLW  72
1C1C:  MOVWF  FF6
1C1E:  MOVLW  05
1C20:  MOVWF  FF7
1C22:  CALL   07CC
1C26:  CALL   07EC
....................           //dbg_return_carriage(); 
....................     
.................... //ustawia pierwsze skonfigurowane w RADIO wejœcie audio 
....................           for(int i=0; i<MENU_MODULE_audio_devices_list_len; i++) 
1C2A:  CLRF   5B
1C2C:  MOVF   5B,W
1C2E:  SUBLW  06
1C30:  BNC   1C72
....................               { 
....................               if (MENU_MODULE_audio_devices_list[i] !=MENU_MODULE_NOTSUPPORTED_input) 
1C32:  CLRF   03
1C34:  MOVF   5B,W
1C36:  CALL   00BA
1C3A:  SUBLW  08
1C3C:  BZ    1C6E
....................                   { 
....................                   audio_devices_playing_submenu = i; 
1C3E:  MOVFF  5B,52
....................                   dbg_printf("Audio dev:%x",MENU_MODULE_audio_devices_list[i]); 
1C42:  CLRF   03
1C44:  MOVF   5B,W
1C46:  CALL   00BA
1C4A:  MOVWF  62
1C4C:  MOVLW  92
1C4E:  MOVWF  FF6
1C50:  MOVLW  05
1C52:  MOVWF  FF7
1C54:  MOVLW  0A
1C56:  MOVWF  x81
1C58:  CALL   089E
1C5C:  MOVFF  62,81
1C60:  MOVLW  57
1C62:  MOVWF  x82
1C64:  CALL   08BC
1C68:  CALL   07EC
....................                   //dbg_return_carriage(); 
....................                   break; 
1C6C:  BRA    1C72
....................                   } 
1C6E:  INCF   5B,F
1C70:  BRA    1C2C
....................               } 
....................             EEPROM_MODULE_WRITE_audio_input(); 
1C72:  CLRF   66
1C74:  MOVLW  01
1C76:  MOVWF  65
1C78:  CLRF   68
1C7A:  MOVLW  52
1C7C:  MOVWF  67
1C7E:  CLRF   6A
1C80:  MOVLW  01
1C82:  MOVWF  69
1C84:  CALL   0D36
.................... //ustawia pierwsze skonfigurowane w RADIO wejœcie audio 
....................   
....................          EQU_use_active_antena_val=active_antena_MAX_VAL; 
1C88:  MOVLW  01
1C8A:  MOVWF  41
....................          EEPROM_MODULE_WRITE_active_antena(); 
1C8C:  CLRF   66
1C8E:  MOVLW  02
1C90:  MOVWF  65
1C92:  CLRF   68
1C94:  MOVLW  41
1C96:  MOVWF  67
1C98:  CLRF   6A
1C9A:  MOVLW  01
1C9C:  MOVWF  69
1C9E:  CALL   0D36
....................           
....................          FM_freuency_value = FM_freuency_DEFAULT_VAL; 
1CA2:  MOVLW  05
1CA4:  MOVWF  56
1CA6:  MOVLW  37
1CA8:  MOVWF  55
1CAA:  MOVLW  24
1CAC:  MOVWF  54
1CAE:  MOVLW  E0
1CB0:  MOVWF  53
....................          EEPROM_MODULE_WRITE_fm_freqency(); 
1CB2:  CLRF   66
1CB4:  MOVLW  03
1CB6:  MOVWF  65
1CB8:  CLRF   68
1CBA:  MOVLW  53
1CBC:  MOVWF  67
1CBE:  CLRF   6A
1CC0:  MOVLW  04
1CC2:  MOVWF  69
1CC4:  CALL   0D36
....................           
....................          EQU_VOL_value = EQU_VOL_DEFAULT_VAL; 
1CC8:  MOVLW  05
1CCA:  MOVWF  43
....................          EEPROM_MODULE_WRITE_equ_vol(); 
1CCC:  CLRF   66
1CCE:  MOVLW  07
1CD0:  MOVWF  65
1CD2:  CLRF   68
1CD4:  MOVLW  43
1CD6:  MOVWF  67
1CD8:  CLRF   6A
1CDA:  MOVLW  01
1CDC:  MOVWF  69
1CDE:  CALL   0D36
....................            
....................          EQU_Treble_value=EQU_Treble_DEFAULT_VAL; 
1CE2:  CLRF   44
....................          EEPROM_MODULE_WRITE_equ_treble(); 
1CE4:  CLRF   66
1CE6:  MOVLW  08
1CE8:  MOVWF  65
1CEA:  CLRF   68
1CEC:  MOVLW  44
1CEE:  MOVWF  67
1CF0:  CLRF   6A
1CF2:  MOVLW  01
1CF4:  MOVWF  69
1CF6:  CALL   0D36
....................           
....................          EQU_Middle_value=EQU_Middle_DEFAULT_VAL; 
1CFA:  CLRF   45
....................          EEPROM_MODULE_WRITE_equ_middle(); 
1CFC:  CLRF   66
1CFE:  MOVLW  09
1D00:  MOVWF  65
1D02:  CLRF   68
1D04:  MOVLW  45
1D06:  MOVWF  67
1D08:  CLRF   6A
1D0A:  MOVLW  01
1D0C:  MOVWF  69
1D0E:  CALL   0D36
....................           
....................          EQU_Bass_value=EQU_Bass_DEFAULT_VAL; 
1D12:  CLRF   46
....................          EEPROM_MODULE_WRITE_equ_bass(); 
1D14:  CLRF   66
1D16:  MOVLW  0A
1D18:  MOVWF  65
1D1A:  CLRF   68
1D1C:  MOVLW  46
1D1E:  MOVWF  67
1D20:  CLRF   6A
1D22:  MOVLW  01
1D24:  MOVWF  69
1D26:  CALL   0D36
....................           
....................          EQU_L_H_Boost_value=EQU_L_H_Boost_DEFAULT_VAL; 
1D2A:  CLRF   47
....................          EEPROM_MODULE_WRITE_equ_l_h_boost(); 
1D2C:  CLRF   66
1D2E:  MOVLW  0B
1D30:  MOVWF  65
1D32:  CLRF   68
1D34:  MOVLW  47
1D36:  MOVWF  67
1D38:  CLRF   6A
1D3A:  MOVLW  01
1D3C:  MOVWF  69
1D3E:  CALL   0D36
....................           
....................          EQU_Left_Right_value=EQU_Left_Right_DEFAULT_VAL; 
1D42:  CLRF   48
....................          EEPROM_MODULE_WRITE_equ_left_right(); 
1D44:  CLRF   66
1D46:  MOVLW  0C
1D48:  MOVWF  65
1D4A:  CLRF   68
1D4C:  MOVLW  48
1D4E:  MOVWF  67
1D50:  CLRF   6A
1D52:  MOVLW  01
1D54:  MOVWF  69
1D56:  CALL   0D36
....................           
....................          EQU_Front_Rear_value=EQU_Front_Rear_DEFAULT_VAL; 
1D5A:  CLRF   49
....................          EEPROM_MODULE_WRITE_equ_front_rear(); 
1D5C:  CLRF   66
1D5E:  MOVLW  0D
1D60:  MOVWF  65
1D62:  CLRF   68
1D64:  MOVLW  49
1D66:  MOVWF  67
1D68:  CLRF   6A
1D6A:  MOVLW  01
1D6C:  MOVWF  69
1D6E:  CALL   0D36
....................       
....................          AM_freuency_value=AM_freuency_DEFAULT_VAL; 
1D72:  CLRF   5A
1D74:  MOVLW  07
1D76:  MOVWF  59
1D78:  MOVLW  F7
1D7A:  MOVWF  58
1D7C:  MOVLW  10
1D7E:  MOVWF  57
....................          EEPROM_MODULE_WRITE_am_freqency(); 
1D80:  CLRF   66
1D82:  MOVWF  65
1D84:  CLRF   68
1D86:  MOVLW  57
1D88:  MOVWF  67
1D8A:  CLRF   6A
1D8C:  MOVLW  04
1D8E:  MOVWF  69
1D90:  CALL   0D36
....................           
....................          #ifdef _USE_BACKLIGHT_ 
....................             EQU_Backlight_value=Backlight_DEFAULT_VAL; 
1D94:  MOVLW  01
1D96:  MOVWF  42
....................             EEPROM_MODULE_WRITE_hmi_backlight(); 
1D98:  CLRF   66
1D9A:  MOVLW  0E
1D9C:  MOVWF  65
1D9E:  CLRF   68
1DA0:  MOVLW  42
1DA2:  MOVWF  67
1DA4:  CLRF   6A
1DA6:  MOVLW  01
1DA8:  MOVWF  69
1DAA:  CALL   0D36
....................          #endif 
....................           
....................          dbg_printf("Nie pisze do eeprom DAB+ default freq"); 
1DAE:  MOVLW  A0
1DB0:  MOVWF  FF6
1DB2:  MOVLW  05
1DB4:  MOVWF  FF7
1DB6:  CALL   07CC
1DBA:  CALL   07EC
....................          //dbg_return_carriage(); 
....................           
....................          dbg_printf("Nie pisze w eeprom zerowej granej mp3"); 
1DBE:  MOVLW  C6
1DC0:  MOVWF  FF6
1DC2:  MOVLW  05
1DC4:  MOVWF  FF7
1DC6:  CALL   07CC
1DCA:  CALL   07EC
....................          //dbg_return_carriage();         
....................           
....................          //TODO: ustawienie i pisanie do EEPROM tych warttoœci: DAB_freuency_value,  Backlight_value 
....................          //TODO:DAB_freuency_value 
....................  
....................           _radio_1st_run = 1; 
1DCE:  MOVLW  01
1DD0:  MOVWF  51
....................           EEPROM_MODULE_WRITE_radio_1st_run();        //musi byæ na sam koniec, na wypadej jak by w trakcie pierwszego uruchomienia w radio by³ power off 
1DD2:  CLRF   66
1DD4:  CLRF   65
1DD6:  CLRF   68
1DD8:  MOVLW  51
1DDA:  MOVWF  67
1DDC:  CLRF   6A
1DDE:  MOVLW  01
1DE0:  MOVWF  69
1DE2:  CALL   0D36
....................           } 
1DE6:  BRA    2126
....................        else  
....................           { 
....................           dbg_printf("Read EEprom"); 
1DE8:  MOVLW  EC
1DEA:  MOVWF  FF6
1DEC:  MOVLW  05
1DEE:  MOVWF  FF7
1DF0:  CALL   07CC
1DF4:  CALL   07EC
....................           //dbg_return_carriage(); 
....................           
....................  
....................           EEPROM_MODULE_READ_audio_input(); 
1DF8:  CLRF   63
1DFA:  MOVLW  01
1DFC:  MOVWF  62
1DFE:  CLRF   65
1E00:  MOVLW  52
1E02:  MOVWF  64
1E04:  CLRF   67
1E06:  MOVLW  01
1E08:  MOVWF  66
1E0A:  CALL   0DE2
....................           dbg_printf("R.input %d", audio_devices_playing_submenu); 
1E0E:  MOVLW  F8
1E10:  MOVWF  FF6
1E12:  MOVLW  05
1E14:  MOVWF  FF7
1E16:  MOVLW  08
1E18:  MOVWF  x81
1E1A:  CALL   089E
1E1E:  MOVFF  52,81
1E22:  MOVLW  18
1E24:  MOVWF  x82
1E26:  CALL   09DE
1E2A:  CALL   07EC
....................           //dbg_return_carriage(); 
....................           EEPROM_MODULE_CHECK_audio_input(); 
1E2E:  CLRF   65
1E30:  MOVLW  52
1E32:  MOVWF  64
1E34:  CLRF   66
1E36:  MOVLW  08
1E38:  MOVWF  67
1E3A:  CLRF   68
1E3C:  CALL   0E86
....................           //EEPROM_MODULE_R_C_audio_input();              
....................           
....................  
....................           EEPROM_MODULE_READ_active_antena(); 
1E40:  CLRF   63
1E42:  MOVLW  02
1E44:  MOVWF  62
1E46:  CLRF   65
1E48:  MOVLW  41
1E4A:  MOVWF  64
1E4C:  CLRF   67
1E4E:  MOVLW  01
1E50:  MOVWF  66
1E52:  CALL   0DE2
....................           dbg_printf("R.aa %d", EQU_use_active_antena_val); 
1E56:  MOVLW  04
1E58:  MOVWF  FF6
1E5A:  MOVLW  06
1E5C:  MOVWF  FF7
1E5E:  MOVLW  05
1E60:  MOVWF  x81
1E62:  CALL   089E
1E66:  MOVFF  41,81
1E6A:  MOVLW  18
1E6C:  MOVWF  x82
1E6E:  CALL   09DE
1E72:  CALL   07EC
....................           //dbg_return_carriage();           
....................           EEPROM_MODULE_CHECK_active_antena(); 
1E76:  CLRF   65
1E78:  MOVLW  41
1E7A:  MOVWF  64
1E7C:  CLRF   66
1E7E:  MOVLW  01
1E80:  MOVWF  67
1E82:  MOVWF  68
1E84:  CALL   0E86
....................           //EEPROM_MODULE_R_C_active_antena(); 
....................              
....................  
....................           EEPROM_MODULE_READ_fm_freqency(); 
1E88:  CLRF   63
1E8A:  MOVLW  03
1E8C:  MOVWF  62
1E8E:  CLRF   65
1E90:  MOVLW  53
1E92:  MOVWF  64
1E94:  CLRF   67
1E96:  MOVLW  04
1E98:  MOVWF  66
1E9A:  CALL   0DE2
....................           dbg_printf("R.fm_freq");    
1E9E:  MOVLW  0C
1EA0:  MOVWF  FF6
1EA2:  MOVLW  06
1EA4:  MOVWF  FF7
1EA6:  CALL   07CC
1EAA:  CALL   07EC
....................           //dbg_return_carriage();                     
....................           EEPROM_MODULE_CHECK_fm_freqency();  
1EAE:  CLRF   65
1EB0:  MOVLW  53
1EB2:  MOVWF  64
1EB4:  MOVLW  05
1EB6:  MOVWF  69
1EB8:  MOVLW  37
1EBA:  MOVWF  68
1EBC:  MOVLW  24
1EBE:  MOVWF  67
1EC0:  MOVLW  E0
1EC2:  MOVWF  66
1EC4:  MOVLW  06
1EC6:  MOVWF  6D
1EC8:  MOVLW  6F
1ECA:  MOVWF  6C
1ECC:  MOVLW  F3
1ECE:  MOVWF  6B
1ED0:  CLRF   6A
1ED2:  MOVLW  05
1ED4:  MOVWF  71
1ED6:  MOVLW  37
1ED8:  MOVWF  70
1EDA:  MOVLW  24
1EDC:  MOVWF  6F
1EDE:  MOVLW  E0
1EE0:  MOVWF  6E
1EE2:  CALL   0EE2
....................           //EEPROM_MODULE_R_C_fm_freqency();          
....................            
....................  
....................           EEPROM_MODULE_READ_equ_vol(); 
1EE6:  CLRF   63
1EE8:  MOVLW  07
1EEA:  MOVWF  62
1EEC:  CLRF   65
1EEE:  MOVLW  43
1EF0:  MOVWF  64
1EF2:  CLRF   67
1EF4:  MOVLW  01
1EF6:  MOVWF  66
1EF8:  CALL   0DE2
....................           dbg_printf("R.vol");  
1EFC:  MOVLW  16
1EFE:  MOVWF  FF6
1F00:  MOVLW  06
1F02:  MOVWF  FF7
1F04:  CALL   07CC
1F08:  CALL   07EC
....................           //dbg_return_carriage(); 
....................           EEPROM_MODULE_CHECK_equ_vol(); 
1F0C:  CLRF   65
1F0E:  MOVLW  43
1F10:  MOVWF  64
1F12:  CLRF   66
1F14:  MOVLW  28
1F16:  MOVWF  67
1F18:  MOVLW  05
1F1A:  MOVWF  68
1F1C:  CALL   0E86
....................           //EEPROM_MODULE_R_C_equ_vol();  
....................  
....................  
....................           EEPROM_MODULE_READ_equ_treble(); 
1F20:  CLRF   63
1F22:  MOVLW  08
1F24:  MOVWF  62
1F26:  CLRF   65
1F28:  MOVLW  44
1F2A:  MOVWF  64
1F2C:  CLRF   67
1F2E:  MOVLW  01
1F30:  MOVWF  66
1F32:  CALL   0DE2
....................           dbg_printf("R.tre");  
1F36:  MOVLW  1C
1F38:  MOVWF  FF6
1F3A:  MOVLW  06
1F3C:  MOVWF  FF7
1F3E:  CALL   07CC
1F42:  CALL   07EC
....................           //dbg_return_carriage();           
....................           EEPROM_MODULE_CHECK_equ_treble(); 
1F46:  CLRF   65
1F48:  MOVLW  44
1F4A:  MOVWF  64
1F4C:  CLRF   66
1F4E:  MOVLW  1E
1F50:  MOVWF  67
1F52:  CLRF   68
1F54:  CALL   0E86
....................           //EEPROM_MODULE_R_C_equ_treble(); 
....................  
....................  
....................           EEPROM_MODULE_READ_equ_middle(); 
1F58:  CLRF   63
1F5A:  MOVLW  09
1F5C:  MOVWF  62
1F5E:  CLRF   65
1F60:  MOVLW  45
1F62:  MOVWF  64
1F64:  CLRF   67
1F66:  MOVLW  01
1F68:  MOVWF  66
1F6A:  CALL   0DE2
....................           dbg_printf("R.mid");  
1F6E:  MOVLW  22
1F70:  MOVWF  FF6
1F72:  MOVLW  06
1F74:  MOVWF  FF7
1F76:  CALL   07CC
1F7A:  CALL   07EC
....................           //dbg_return_carriage(); 
....................           EEPROM_MODULE_CHECK_equ_middle(); 
1F7E:  CLRF   65
1F80:  MOVLW  45
1F82:  MOVWF  64
1F84:  CLRF   66
1F86:  MOVLW  1E
1F88:  MOVWF  67
1F8A:  CLRF   68
1F8C:  CALL   0E86
....................           //EEPROM_MODULE_R_C_equ_middle(); 
....................  
....................  
....................           EEPROM_MODULE_READ_equ_bass(); 
1F90:  CLRF   63
1F92:  MOVLW  0A
1F94:  MOVWF  62
1F96:  CLRF   65
1F98:  MOVLW  46
1F9A:  MOVWF  64
1F9C:  CLRF   67
1F9E:  MOVLW  01
1FA0:  MOVWF  66
1FA2:  CALL   0DE2
....................           dbg_printf("R.bass");  
1FA6:  MOVLW  28
1FA8:  MOVWF  FF6
1FAA:  MOVLW  06
1FAC:  MOVWF  FF7
1FAE:  CALL   07CC
1FB2:  CALL   07EC
....................           //dbg_return_carriage(); 
....................           EEPROM_MODULE_CHECK_equ_bass(); 
1FB6:  CLRF   65
1FB8:  MOVLW  46
1FBA:  MOVWF  64
1FBC:  CLRF   66
1FBE:  MOVLW  1E
1FC0:  MOVWF  67
1FC2:  CLRF   68
1FC4:  CALL   0E86
....................           //EEPROM_MODULE_R_C_equ_bass(); 
....................  
....................  
....................           EEPROM_MODULE_READ_equ_l_h_boost(); 
1FC8:  CLRF   63
1FCA:  MOVLW  0B
1FCC:  MOVWF  62
1FCE:  CLRF   65
1FD0:  MOVLW  47
1FD2:  MOVWF  64
1FD4:  CLRF   67
1FD6:  MOVLW  01
1FD8:  MOVWF  66
1FDA:  CALL   0DE2
....................           dbg_printf("R.boost");  
1FDE:  MOVLW  30
1FE0:  MOVWF  FF6
1FE2:  MOVLW  06
1FE4:  MOVWF  FF7
1FE6:  CALL   07CC
1FEA:  CALL   07EC
....................           //dbg_return_carriage(); 
....................           EEPROM_MODULE_CHECK_equ_l_h_boost(); 
1FEE:  CLRF   65
1FF0:  MOVLW  47
1FF2:  MOVWF  64
1FF4:  CLRF   66
1FF6:  MOVLW  01
1FF8:  MOVWF  67
1FFA:  CLRF   68
1FFC:  CALL   0E86
....................           //EEPROM_MODULE_R_C_equ_l_h_boost(); 
....................  
....................  
....................           EEPROM_MODULE_READ_equ_left_right(); 
2000:  CLRF   63
2002:  MOVLW  0C
2004:  MOVWF  62
2006:  CLRF   65
2008:  MOVLW  48
200A:  MOVWF  64
200C:  CLRF   67
200E:  MOVLW  01
2010:  MOVWF  66
2012:  CALL   0DE2
....................           dbg_printf("R.l-r"); 
2016:  MOVLW  38
2018:  MOVWF  FF6
201A:  MOVLW  06
201C:  MOVWF  FF7
201E:  CALL   07CC
2022:  CALL   07EC
....................           //dbg_return_carriage(); 
....................           EEPROM_MODULE_CHECK_equ_left_right(); 
2026:  CLRF   65
2028:  MOVLW  48
202A:  MOVWF  64
202C:  MOVLW  FA
202E:  MOVWF  66
2030:  MOVLW  06
2032:  MOVWF  67
2034:  CLRF   68
2036:  CALL   0E86
....................           //EEPROM_MODULE_R_C_equ_left_right(); 
....................  
....................           dbg_printf("R.f-r"); 
203A:  MOVLW  3E
203C:  MOVWF  FF6
203E:  MOVLW  06
2040:  MOVWF  FF7
2042:  CALL   07CC
2046:  CALL   07EC
....................           //dbg_return_carriage(); 
....................           EEPROM_MODULE_READ_equ_front_rear(); 
204A:  CLRF   63
204C:  MOVLW  0D
204E:  MOVWF  62
2050:  CLRF   65
2052:  MOVLW  49
2054:  MOVWF  64
2056:  CLRF   67
2058:  MOVLW  01
205A:  MOVWF  66
205C:  CALL   0DE2
....................           EEPROM_MODULE_CHECK_equ_front_rear(); 
2060:  CLRF   65
2062:  MOVLW  49
2064:  MOVWF  64
2066:  MOVLW  FA
2068:  MOVWF  66
206A:  MOVLW  06
206C:  MOVWF  67
206E:  CLRF   68
2070:  CALL   0E86
....................           //EEPROM_MODULE_R_C_equ_equ_front_rear(); 
....................            
....................  
....................           EEPROM_MODULE_READ_am_freqency();  
2074:  CLRF   63
2076:  MOVLW  10
2078:  MOVWF  62
207A:  CLRF   65
207C:  MOVLW  57
207E:  MOVWF  64
2080:  CLRF   67
2082:  MOVLW  04
2084:  MOVWF  66
2086:  CALL   0DE2
....................           dbg_printf("R.am freq"); 
208A:  MOVLW  44
208C:  MOVWF  FF6
208E:  MOVLW  06
2090:  MOVWF  FF7
2092:  CALL   07CC
2096:  CALL   07EC
....................           //dbg_return_carriage();           
....................           EEPROM_MODULE_CHECK_am_freqency(); 
209A:  CLRF   65
209C:  MOVLW  57
209E:  MOVWF  64
20A0:  CLRF   69
20A2:  MOVLW  07
20A4:  MOVWF  68
20A6:  MOVLW  F7
20A8:  MOVWF  67
20AA:  MOVLW  10
20AC:  MOVWF  66
20AE:  CLRF   6D
20B0:  MOVLW  18
20B2:  MOVWF  6C
20B4:  MOVLW  94
20B6:  MOVWF  6B
20B8:  MOVLW  F8
20BA:  MOVWF  6A
20BC:  CLRF   71
20BE:  MOVLW  07
20C0:  MOVWF  70
20C2:  MOVLW  F7
20C4:  MOVWF  6F
20C6:  MOVLW  10
20C8:  MOVWF  6E
20CA:  CALL   0EE2
....................            
....................           #ifdef _USE_BACKLIGHT_ 
....................              EEPROM_MODULE_READ_hmi_backlight(); 
20CE:  CLRF   63
20D0:  MOVLW  0E
20D2:  MOVWF  62
20D4:  CLRF   65
20D6:  MOVLW  42
20D8:  MOVWF  64
20DA:  CLRF   67
20DC:  MOVLW  01
20DE:  MOVWF  66
20E0:  CALL   0DE2
....................              dbg_printf("R.BCK_light"); 
20E4:  MOVLW  4E
20E6:  MOVWF  FF6
20E8:  MOVLW  06
20EA:  MOVWF  FF7
20EC:  CALL   07CC
20F0:  CALL   07EC
....................              //dbg_return_carriage(); 
....................              EEPROM_MODULE_CHECK_hmi_backlight(); 
20F4:  CLRF   65
20F6:  MOVLW  42
20F8:  MOVWF  64
20FA:  CLRF   66
20FC:  MOVLW  01
20FE:  MOVWF  67
2100:  MOVWF  68
2102:  CALL   0E86
....................           #endif 
....................            
....................          dbg_printf("Nie czytam z eeprom DAB+ default freq"); 
2106:  MOVLW  5A
2108:  MOVWF  FF6
210A:  MOVLW  06
210C:  MOVWF  FF7
210E:  CALL   07CC
2112:  CALL   07EC
....................          //dbg_return_carriage(); 
....................           
....................          dbg_printf("Nie czytam z eeprom ostatnio granej mp3"); 
2116:  MOVLW  80
2118:  MOVWF  FF6
211A:  MOVLW  06
211C:  MOVWF  FF7
211E:  CALL   07CC
2122:  CALL   07EC
....................          //dbg_return_carriage();   
....................            
....................           //TODO: Sprawdzenie poprawnoœci odczytu w/w wartoœci          //TODO: zrobiæ define z min, max i default waroœciami w zale¿noœci od konfigu w config_file.h??? 
....................           //TODO: czytanie DAB freq 
....................           //TODO: Sprawdzenie poprawnoœci odczytu w/w wartoœci          //TODO: zrobiæ define z min, max i default waroœciami w zale¿noœci od konfigu w config_file.h??? 
....................           //TODO: czytanie BACKLIGHT 
....................           //TODO: Sprawdzenie poprawnoœci odczytu w/w wartoœci          //TODO: zrobiæ define z min, max i default waroœciami w zale¿noœci od konfigu w config_file.h??? 
....................           } 
....................        } 
.................... //-----------------------------------------------------------// 
.................... //------------ READ EEPROM RADIO CONFIGURATION ------------- // 
.................... //-----------------------------------------------------------//   
....................  
....................  
....................  
.................... //-----------------------------------------------------------// 
.................... //------- INIT HARDWARE: KB, TIMER, INTERRUPT, ETC --------- // 
.................... //-----------------------------------------------------------// 
....................     //ext_int_edge(1, L_TO_H); 
....................     //enable_interrupts(INT_EXT); 
....................     init_keyboard(); 
2126:  GOTO   0FA8
....................     init_timeout(); 
212A:  GOTO   0FB2
....................     clrl_all_packs(); 
212E:  GOTO   0FDE
....................     enable_interrupts(GLOBAL); 
2132:  MOVLW  C0
2134:  IORWF  FF2,F
....................      
....................      
....................   //TODO INIT equalizera i wzmacniacza 
....................   //TODO INIT backlight 
....................   //TODO: RERSTE WSZYSTKICH URZ¥DZEÑ AUDIO 
....................    
.................... //-----------------------------------------------------------// 
.................... //------- INIT HARDWARE: KB, TIMER, INTERRUPT, ETC --------- // 
.................... //-----------------------------------------------------------//     
....................      
....................      
....................      
....................      
.................... //-----------------------------------------------------------// 
.................... //--------------- RADIO MENU LOOP BEGINNING ---------------- // 
.................... //-----------------------------------------------------------//    
....................    #ifdef _USE_BACKLIGHT_ 
....................       //set_1st_time_backlight 
....................       //dbg_printf("Set backlight"); 
....................       //dbg_return_carriage(); 
....................       set_backlight(EQU_Backlight_value); 
2136:  MOVFF  42,6B
213A:  CALL   0FEC
....................       //delay_ms(30); 
....................       //set_1st_time_backlight 
....................    #endif 
....................   //TODO: NIe wiedziec czemu w tym miejscu (w symulatorze proteus) jak byla komenta STEPPER_MOTOR_send_percentage to wywala³o b³êdn¹ komenhê i2C_HMI :/ 
....................     
....................     
....................     while(true)          //Main while loop 
....................         { 
....................     
.................... //-----------------------------------------------------------// 
.................... //----------------- VOLUME BUTTON HANDLING ----------------- // 
.................... //-----------------------------------------------------------// 
....................         if ((button_value_pattern==encoder1_right_pattern) || (button_value_pattern==encoder1_left_pattern)) 
213E:  DECFSZ 1A,W
2140:  BRA    2144
2142:  BRA    214A
2144:  MOVF   1A,W
2146:  SUBLW  02
2148:  BNZ   21FE
....................             { 
....................             int8 last_main_menu = main_menu; 
....................             int1 is_VOLUME_loop_timeout; 
214A:  MOVFF  4D,5C
....................             main_menu = MENU_MODULE_VOLUME_menu; 
214E:  MOVLW  01
2150:  MOVWF  4D
....................             back_to_menu = MENU_MODULE_NO_NEED_to_back; 
2152:  CLRF   4E
....................              
....................             dbg_printf( "Vol menu"); 
2154:  MOVLW  A8
2156:  MOVWF  FF6
2158:  MOVLW  06
215A:  MOVWF  FF7
215C:  CALL   07CC
2160:  CALL   07EC
....................             //dbg_return_carriage(); 
....................  
....................             run_timer(); 
2164:  BSF    F9D.0
....................             // !!!!!!!!!!!!!! variabnles used only to save data !!!!!!!!!!!!!! 
....................             signed int8 EQU_VOL_temp = EQU_VOL_value; 
2166:  MOVFF  43,5D
....................             // !!!!!!!!!!!!!! variabnles used only to save data !!!!!!!!!!!!!! 
....................             do 
....................                 { 
....................                 if ((button_value_pattern==encoder1_right_pattern)) 
216A:  DECFSZ 1A,W
216C:  BRA    2188
....................                     //Volume UP routine 
....................                     { 
....................                     dbg_printf( "Vol+"); 
216E:  MOVLW  B2
2170:  MOVWF  FF6
2172:  MOVLW  06
2174:  MOVWF  FF7
2176:  CALL   07CC
217A:  CALL   07EC
....................                     //dbg_return_carriage(); 
....................                     EQU_VOL_value=EQU_VOL_value+1; 
217E:  MOVLW  01
2180:  ADDWF  43,F
....................                      
....................                     //TODO: set vol     
....................                      
....................                     MENU_MODULE_reset_loop_conditions_TIMER_BUTTON_KEYBOARD(); 
2182:  CALL   1036
....................                     } 
2186:  BRA    21B6
....................                 else if (button_value_pattern==encoder1_left_pattern) 
2188:  MOVF   1A,W
218A:  SUBLW  02
218C:  BNZ   21A8
....................                     //Volume DOWN routine 
....................                     { 
....................                     dbg_printf( "Vol-"); 
218E:  MOVLW  B8
2190:  MOVWF  FF6
2192:  MOVLW  06
2194:  MOVWF  FF7
2196:  CALL   07CC
219A:  CALL   07EC
....................                     //dbg_return_carriage(); 
....................                     EQU_VOL_value=EQU_VOL_value-1; 
219E:  MOVLW  01
21A0:  SUBWF  43,F
....................                      
....................                     //TODO: set vol 
....................                      
....................                     MENU_MODULE_reset_loop_conditions_TIMER_BUTTON_KEYBOARD(); 
21A2:  CALL   1036
....................                     } 
21A6:  BRA    21B6
....................                 else if (button_value_pattern==0) 
21A8:  MOVF   1A,F
21AA:  BNZ   21B2
....................                     //No key presses WAIT untill timeout 
....................                     { 
....................                     MENU_MODULE_reset_loop_conditions_BUTTON_KEYBOARD(); 
21AC:  CALL   1048
....................                     } 
21B0:  BRA    21B6
....................                 else 
....................                     //Any other key presses end Volume loop 
....................                     { 
....................                     MENU_MODULE_reset_loop_conditions_TIMER_BUTTON(); 
21B2:  CALL   105E
....................                     } 
....................                 is_VOLUME_loop_timeout = check_timeout(); 
21B6:  CALL   106C
21BA:  BCF    4F.1
21BC:  BTFSC  01.0
21BE:  BSF    4F.1
....................                 } 
....................             while(button_loop_breakout&&!is_VOLUME_loop_timeout); 
21C0:  BTFSS  1B.0
21C2:  BRA    21C8
21C4:  BTFSS  4F.1
21C6:  BRA    216A
....................             clear_timer();    //MUSI BYï¿½ poniewaï¿½ z pï¿½tli moï¿½na wyjï¿½c w przypadku timeoutu i naciï¿½niï¿½cia innego klawisza niï¿½ obsï¿½ugiwany 
21C8:  CALL   107E
....................             back_to_menu =last_main_menu; 
21CC:  MOVFF  5C,4E
....................              
....................             //SAVE VOL if required 
....................             if (EQU_VOL_temp!=EQU_VOL_value) 
21D0:  MOVF   43,W
21D2:  SUBWF  5D,W
21D4:  BZ    21FC
....................                { 
....................                dbg_printf("SAVE volume"); 
21D6:  MOVLW  BE
21D8:  MOVWF  FF6
21DA:  MOVLW  06
21DC:  MOVWF  FF7
21DE:  CALL   07CC
21E2:  CALL   07EC
....................                //dbg_return_carriage(); 
....................                //EEPROM_MODULE_CHECK_TEMP_equ_vol();   //t¹ funkcjê da³ bym w innym module od rtazu ze sprawdzeniem ifa 
....................                EEPROM_MODULE_WRITE_equ_vol(); 
21E6:  CLRF   66
21E8:  MOVLW  07
21EA:  MOVWF  65
21EC:  CLRF   68
21EE:  MOVLW  43
21F0:  MOVWF  67
21F2:  CLRF   6A
21F4:  MOVLW  01
21F6:  MOVWF  69
21F8:  CALL   0D36
....................                } 
....................             //SAVE VOL if required 
....................             } 
21FC:  BRA    25A2
.................... //-----------------------------------------------------------// 
.................... //----------------- VOLUME BUTTON HANDLING END-------------- // 
.................... //-----------------------------------------------------------// 
....................  
....................  
....................  
.................... //--------------------------------------------------------------// 
.................... //----------------- AUDIO INPUT MODE HANDLING ----------------- // 
.................... //--------------------------------------------------------------// 
....................         else if (button_value_pattern==button1_pattern ||                                //Naciï¿½niï¿½to przycisk 1 
....................                  (back_to_menu == MENU_MODULE_PLAY_menu&&button_value_pattern!=button2_pattern) ||    //Wyjï¿½cie z innefo menu i nie naciï¿½niï¿½to przyciskou ekuqlizera 
....................                  (main_menu == MENU_MODULE_PLAY_menu&&button_value_pattern==encoder2_right_pattern) || 
....................                  (main_menu == MENU_MODULE_PLAY_menu&&button_value_pattern==encoder2_left_pattern) || 
....................                  (main_menu == MENU_MODULE_PLAY_menu&&button_value_pattern==button3_pattern) || 
....................                  (main_menu == MENU_MODULE_PLAY_menu&&button_value_pattern==button4_pattern) || 
....................                  device_already_started ==TRUE) 
21FE:  MOVF   1A,W
2200:  SUBLW  10
2202:  BZ    2244
2204:  MOVF   4E,W
2206:  SUBLW  02
2208:  BNZ   2210
220A:  MOVF   1A,W
220C:  SUBLW  20
220E:  BNZ   2244
2210:  MOVF   4D,W
2212:  SUBLW  02
2214:  BNZ   221C
2216:  MOVF   1A,W
2218:  SUBLW  04
221A:  BZ    2244
221C:  MOVF   4D,W
221E:  SUBLW  02
2220:  BNZ   2228
2222:  MOVF   1A,W
2224:  SUBLW  08
2226:  BZ    2244
2228:  MOVF   4D,W
222A:  SUBLW  02
222C:  BNZ   2234
222E:  MOVF   1A,W
2230:  SUBLW  40
2232:  BZ    2244
2234:  MOVF   4D,W
2236:  SUBLW  02
2238:  BNZ   2240
223A:  MOVF   1A,W
223C:  SUBLW  80
223E:  BZ    2244
2240:  BTFSS  4F.0
2242:  BRA    2364
....................             { 
....................              
....................             MENU_MODULE_submenu_clear_LED(main_menu); //reset EQUALISER LED PACK 
2244:  MOVFF  4D,62
2248:  GOTO   1098
....................              
....................             main_menu = MENU_MODULE_PLAY_menu; 
224C:  MOVLW  02
224E:  MOVWF  4D
....................             back_to_menu = MENU_MODULE_NO_NEED_to_back; 
2250:  CLRF   4E
....................  
....................             dbg_printf("Player source switch"); 
2252:  MOVLW  CA
2254:  MOVWF  FF6
2256:  MOVLW  06
2258:  MOVWF  FF7
225A:  CALL   07CC
225E:  CALL   07EC
....................             //dbg_return_carriage(); 
....................  
....................             int1 is_AUDIO_INPUT_loop_timeout; 
....................             run_timer(); 
2262:  BSF    F9D.0
....................             do 
....................                 { 
....................                 if (button_value_pattern==button1_pattern||device_already_started==TRUE)         //Przeï¿½ï¿½czenie sprzï¿½tu audio 
2264:  MOVF   1A,W
2266:  SUBLW  10
2268:  BZ    226E
226A:  BTFSS  4F.0
226C:  BRA    22E0
....................                     { 
....................                     /*timer_overflow_counter =0; 
....................                     set_button_loop_breakout(); 
....................                     clear_keyboard_value();*/ 
....................                     MENU_MODULE_reset_loop_conditions_TIMER_BUTTON_KEYBOARD(); 
226E:  CALL   1036
....................                     dbg_printf("Switch input"); 
2272:  MOVLW  E0
2274:  MOVWF  FF6
2276:  MOVLW  06
2278:  MOVWF  FF7
227A:  CALL   07CC
227E:  CALL   07EC
....................                     //dbg_return_carriage(); 
....................  
....................                     clear_keyboard_value(); 
2282:  CALL   102A
....................                     if (device_already_started==TRUE) 
2286:  BTFSS  4F.0
2288:  BRA    228E
....................                         { 
....................                         device_already_started=FALSE; 
228A:  BCF    4F.0
....................                         audio_devices_playing_submenu=audio_devices_playing_submenu; 
....................                         } 
228C:  BRA    2292
....................                     else 
....................                         { 
....................                         audio_devices_playing_submenu=audio_devices_playing_submenu+1; 
228E:  MOVLW  01
2290:  ADDWF  52,F
....................                         } 
....................  
....................                     if (audio_devices_playing_submenu>MENU_MODULE_audio_devices_list_len) 
2292:  BTFSC  52.7
2294:  BRA    229E
2296:  MOVF   52,W
2298:  SUBLW  07
229A:  BC    229E
....................                         { 
....................                         audio_devices_playing_submenu = 0; 
229C:  CLRF   52
....................                         } 
....................  
....................                     dbg_printf( "Dev. %u init", audio_devices_playing_submenu); 
229E:  MOVLW  EE
22A0:  MOVWF  FF6
22A2:  MOVLW  06
22A4:  MOVWF  FF7
22A6:  MOVLW  05
22A8:  MOVWF  x81
22AA:  CALL   089E
22AE:  MOVFF  52,66
22B2:  MOVLW  1B
22B4:  MOVWF  67
22B6:  CALL   10A8
22BA:  MOVLW  F5
22BC:  MOVWF  FF6
22BE:  MOVLW  06
22C0:  MOVWF  FF7
22C2:  MOVLW  05
22C4:  MOVWF  x81
22C6:  CALL   089E
22CA:  CALL   07EC
....................                     //dbg_return_carriage(); 
....................  
....................                     device_already_started = MENU_MODULE_audio_device_init(&audio_devices_playing_submenu); 
22CE:  CLRF   63
22D0:  MOVLW  52
22D2:  MOVWF  62
22D4:  GOTO   1204
22D8:  BCF    4F.0
22DA:  BTFSC  01.0
22DC:  BSF    4F.0
....................  
....................                     } 
22DE:  BRA    234C
....................                 else if (button_value_pattern==encoder2_right_pattern) 
22E0:  MOVF   1A,W
22E2:  SUBLW  04
22E4:  BNZ   22F6
....................                     { 
....................  
....................                     /*timer_overflow_counter =0; 
....................                     set_button_loop_breakout(); 
....................                     clear_keyboard_value();*/ 
....................                     MENU_MODULE_reset_loop_conditions_TIMER_BUTTON_KEYBOARD(); 
22E6:  CALL   1036
....................                     //dbg_printf("Step UP "); 
....................  
....................                     MENU_MODULE_audio_device_step_action(audio_devices_playing_submenu,MENU_MODULE_audio_device_stepUP); 
22EA:  MOVFF  52,62
22EE:  CLRF   63
22F0:  CALL   1588
....................  
....................                     } 
22F4:  BRA    234C
....................                 else if (button_value_pattern==encoder2_left_pattern) 
22F6:  MOVF   1A,W
22F8:  SUBLW  08
22FA:  BNZ   230E
....................                     { 
....................  
....................  
....................  
....................                     /*timer_overflow_counter =0; 
....................                     set_button_loop_breakout(); 
....................                     clear_keyboard_value();*/ 
....................                     MENU_MODULE_reset_loop_conditions_TIMER_BUTTON_KEYBOARD(); 
22FC:  CALL   1036
....................                     MENU_MODULE_audio_device_step_action(audio_devices_playing_submenu,MENU_MODULE_audio_device_stepDOWN); 
2300:  MOVFF  52,62
2304:  MOVLW  01
2306:  MOVWF  63
2308:  CALL   1588
....................  
....................                     } 
230C:  BRA    234C
....................                 else if (button_value_pattern==button3_pattern) 
230E:  MOVF   1A,W
2310:  SUBLW  40
2312:  BNZ   2326
....................                     { 
....................  
....................                     /*timer_overflow_counter =0; 
....................                     set_button_loop_breakout(); 
....................                     clear_keyboard_value();*/ 
....................                     MENU_MODULE_reset_loop_conditions_TIMER_BUTTON_KEYBOARD(); 
2314:  CALL   1036
....................  
....................                     //dbg_printf("autoTuneDOWN "); 
....................                     MENU_MODULE_audio_device_step_action(audio_devices_playing_submenu,MENU_MODULE_audio_device_auto_tuneDOWN); 
2318:  MOVFF  52,62
231C:  MOVLW  04
231E:  MOVWF  63
2320:  CALL   1588
....................  
....................                     } 
2324:  BRA    234C
....................                 else if (button_value_pattern==button4_pattern) 
2326:  MOVF   1A,W
2328:  SUBLW  80
232A:  BNZ   233E
....................                     { 
....................  
....................  
....................                     /*timer_overflow_counter =0; 
....................                     set_button_loop_breakout(); 
....................                     clear_keyboard_value();*/ 
....................                     MENU_MODULE_reset_loop_conditions_TIMER_BUTTON_KEYBOARD(); 
232C:  CALL   1036
....................  
....................                     //dbg_printf("autoTuneUP "); 
....................  
....................                     MENU_MODULE_audio_device_step_action(audio_devices_playing_submenu,MENU_MODULE_audio_device_auto_tuneUP); 
2330:  MOVFF  52,62
2334:  MOVLW  02
2336:  MOVWF  63
2338:  CALL   1588
....................  
....................                     } 
233C:  BRA    234C
....................                 else if (button_value_pattern==0) 
233E:  MOVF   1A,F
2340:  BNZ   2348
....................                     //No key presses WAIT untill timeout 
....................                     { 
....................                     //timer_overflow_counter =0; 
....................                     /*set_button_loop_breakout(); 
....................                     clear_keyboard_value();          //Jeï¿½li po klawiszu nieczytanym ma wyjï¿½ï¿½ i zrobiï¿½ akcjï¿½ to zahaszhowaï¿½*/ 
....................                     MENU_MODULE_reset_loop_conditions_BUTTON_KEYBOARD(); 
2342:  CALL   1048
....................                     //dbg_printf("Play blank "); 
....................                     } 
2346:  BRA    234C
....................                 else 
....................                     //Any other key presses end AUDIO INPUT loop 
....................                     { 
....................                     /*timer_overflow_counter =0;       //key pressed so it should count from 0 
....................                     reset_button_loop_breakout();    //not supported key pressed so button_loop_breakout = 0 to exit loop*/ 
....................                     MENU_MODULE_reset_loop_conditions_TIMER_BUTTON(); 
2348:  CALL   105E
....................                     } 
....................                 is_AUDIO_INPUT_loop_timeout = check_timeout(); 
234C:  CALL   106C
2350:  BCF    4F.2
2352:  BTFSC  01.0
2354:  BSF    4F.2
....................                 } 
....................             while(button_loop_breakout&&!is_AUDIO_INPUT_loop_timeout); 
2356:  BTFSS  1B.0
2358:  BRA    235E
235A:  BTFSS  4F.2
235C:  BRA    2264
....................             //reset_button_loop_breakout(); 
....................             clear_timer();    //MUSI BYï¿½ poniewaï¿½ z pï¿½tli moï¿½na wyjï¿½c w przypadku timeoutu i naciï¿½niï¿½cia innego klawisza niï¿½ obsï¿½ugiwany 
235E:  CALL   107E
....................  
....................             //dbg_printf("SAVE AUDIO INPUT params:"); 
....................             //dbg_return_carriage(); 
....................             //dbg_printf("s.AUDIO INPUT input"); 
....................            // dbg_return_carriage(); 
....................             //dbg_printf("s.AUDIO INPUT freq FM"); 
....................            // dbg_return_carriage(); 
....................            // dbg_printf("s.AUDIO INPUT freq AM"); 
....................             //dbg_return_carriage(); 
....................             //dbg_printf("s.AUDIO INPUT freq DAB"); 
....................             //dbg_return_carriage(); 
....................             //TODO: zapis audio input 
....................             //TODO: zapis AM freq 
....................             //TODO: zapis FM freq 
....................             //TODO: zapis DAB freq 
....................             } 
2362:  BRA    25A2
.................... //--------------------------------------------------------------// 
.................... //----------------- AUDIO INPUT MODE HANDLING END-------------- // 
.................... //--------------------------------------------------------------// 
....................  
....................  
....................  
.................... //--------------------------------------------------------------// 
.................... //----------------- EQUALISER BUTTON HANDLING ----------------- // 
.................... //--------------------------------------------------------------// 
....................         else if   (button_value_pattern==button2_pattern|| 
....................                    (back_to_menu == MENU_MODULE_EQUALIZER_menu&&button_value_pattern!=button1_pattern)|| 
....................                    (main_menu == MENU_MODULE_EQUALIZER_menu&&button_value_pattern==encoder2_right_pattern) || 
....................                    (main_menu == MENU_MODULE_EQUALIZER_menu&&button_value_pattern==encoder2_left_pattern) || 
....................                    (main_menu == MENU_MODULE_EQUALIZER_menu&&button_value_pattern==button3_pattern) || 
....................                    (main_menu == MENU_MODULE_EQUALIZER_menu&&button_value_pattern==button4_pattern)) 
2364:  MOVF   1A,W
2366:  SUBLW  20
2368:  BZ    23AA
236A:  MOVF   4E,W
236C:  SUBLW  03
236E:  BNZ   2376
2370:  MOVF   1A,W
2372:  SUBLW  10
2374:  BNZ   23AA
2376:  MOVF   4D,W
2378:  SUBLW  03
237A:  BNZ   2382
237C:  MOVF   1A,W
237E:  SUBLW  04
2380:  BZ    23AA
2382:  MOVF   4D,W
2384:  SUBLW  03
2386:  BNZ   238E
2388:  MOVF   1A,W
238A:  SUBLW  08
238C:  BZ    23AA
238E:  MOVF   4D,W
2390:  SUBLW  03
2392:  BNZ   239A
2394:  MOVF   1A,W
2396:  SUBLW  40
2398:  BZ    23AA
239A:  MOVF   4D,W
239C:  SUBLW  03
239E:  BTFSS  FD8.2
23A0:  BRA    256E
23A2:  MOVF   1A,W
23A4:  SUBLW  80
23A6:  BTFSS  FD8.2
23A8:  BRA    256E
....................             { 
....................  
....................             int8 last_main_menu = main_menu; 
....................             int1 is_EQUALISERT_loop_timeout; 
....................             int1 _1st_EQUALISER_loop_execution= TRUE; 
23AA:  MOVFF  4D,5E
23AE:  BSF    4F.4
....................  
....................             main_menu = MENU_MODULE_EQUALIZER_menu; 
23B0:  MOVLW  03
23B2:  MOVWF  4D
....................             back_to_menu = MENU_MODULE_NO_NEED_to_back; 
23B4:  CLRF   4E
....................             dbg_printf("Equaliser menu"); 
23B6:  MOVLW  FC
23B8:  MOVWF  FF6
23BA:  MOVLW  06
23BC:  MOVWF  FF7
23BE:  CALL   07CC
23C2:  CALL   07EC
....................             //dbg_return_carriage(); 
....................  
....................             run_timer(); 
23C6:  BSF    F9D.0
....................              
....................             // !!!!!!!!!!!!!! variabnles used only to save data !!!!!!!!!!!!!!  
....................             signed int8 EQU_Backlight_val_temp=EQU_Backlight_value;                       //zmienna pamiêta jaka jest wartoœæ na pocz¹tu - potrzebne w celu zapisu do EEprom 
....................             signed int8 EQU_use_active_antena_val_temp=EQU_use_active_antena_val;         //zmienna pamiêta jaka jest wartoœæ na pocz¹tu - potrzebne w celu zapisu do EEprom 
23C8:  MOVFF  42,5F
23CC:  MOVFF  41,60
....................              
....................             // !!!!!!!!!!!!!! variabnles used only to save data !!!!!!!!!!!!!!  
....................              
....................             do 
....................                 { 
....................                 if (button_value_pattern==button2_pattern) 
23D0:  MOVF   1A,W
23D2:  SUBLW  20
23D4:  BNZ   248A
....................                     { 
.................... //#ifdef _USE_ACTIVE_ANTENA_ 
....................                     int1 is_ACTIVE_ANTENA_MENU_REQUIRED; 
.................... //#endif 
....................                     if (_1st_EQUALISER_loop_execution == TRUE && last_main_menu != MENU_MODULE_VOLUME_menu)  //Jeï¿½li byï¿½ w MENU PLAY lub powrï¿½t z MENU VOLUME 
23D6:  BTFSS  4F.4
23D8:  BRA    243A
23DA:  DECFSZ 5E,W
23DC:  BRA    23E0
23DE:  BRA    243A
....................                         { 
....................                          
.................... /*                           int8 active_antena_power_setup = get_active_antena_power_setup(); 
....................                            dbg_printf("Antena power setup:%x", active_antena_power_setup); 
....................                            //dbg_return_carriage(); 
....................                              
....................                            int1 Active_FM_antena_on_off = active_antena_power_setup && IS_FM_ANT_ACTIVE_bit; 
....................                            int1 Active_DAB_antena_on_off = active_antena_power_setup && IS_DAB_ANT_ACTIVE_bit; 
....................                            int1 Active_converter_antena_on_off = active_antena_power_setup && IS_FM_DAB_CONVERTER_bit;*/ 
....................  
....................                          
....................                          
.................... //#ifdef _USE_ACTIVE_ANTENA_ 
....................                                   
....................                         if ( 
....................                                  ((MENU_MODULE_audio_devices_list[audio_devices_playing_submenu]== MENU_MODULE_TEA5767_input)         && (Active_FM_antena_hardware_setup)                           )|| 
....................                                  (((MENU_MODULE_audio_devices_list[audio_devices_playing_submenu]== MENU_MODULE_MONKEYBOARD_FM_input))&& (Active_FM_antena_hardware_setup || Active_converter_antena_hardware_setup))|| 
....................                                  ((MENU_MODULE_audio_devices_list[audio_devices_playing_submenu]== MENU_MODULE_MONKEYBOARD_AM_input)  && (Active_FM_antena_hardware_setup || Active_converter_antena_hardware_setup))|| 
....................                                  ((MENU_MODULE_audio_devices_list[audio_devices_playing_submenu]== MENU_MODULE_MONKEYBOARD_DAB_input) && (Active_DAB_antena_hardware_setup|| Active_converter_antena_hardware_setup)) 
23E0:  CLRF   03
23E2:  MOVF   52,W
23E4:  CALL   00BA
23E8:  XORLW  00
23EA:  BNZ   23F0
23EC:  BTFSC  1B.2
23EE:  BRA    242C
23F0:  CLRF   03
23F2:  MOVF   52,W
23F4:  CALL   00BA
23F8:  SUBLW  01
23FA:  BNZ   2404
23FC:  BTFSC  1B.2
23FE:  BRA    242C
2400:  BTFSC  1B.4
2402:  BRA    242C
2404:  CLRF   03
2406:  MOVF   52,W
2408:  CALL   00BA
240C:  SUBLW  03
240E:  BNZ   2418
2410:  BTFSC  1B.2
2412:  BRA    242C
2414:  BTFSC  1B.4
2416:  BRA    242C
2418:  CLRF   03
241A:  MOVF   52,W
241C:  CALL   00BA
2420:  SUBLW  02
2422:  BNZ   2432
2424:  BTFSC  1B.3
2426:  BRA    242C
2428:  BTFSS  1B.4
242A:  BRA    2432
....................                                  )                                    
....................                             { 
....................                             equaliser_submenu=0;                //jeï¿½ï¿½i zdefiniowano ACTIVE ANTENA i jest odtwarzane RADO FM lub DAB 
242C:  CLRF   50
....................                             is_ACTIVE_ANTENA_MENU_REQUIRED = TRUE; 
242E:  BSF    4F.5
....................                             } 
2430:  BRA    2438
....................                         else 
.................... //#endif 
....................                             { 
....................                             equaliser_submenu=1; 
2432:  MOVLW  01
2434:  MOVWF  50
.................... //#ifdef _USE_ACTIVE_ANTENA_ 
....................                             is_ACTIVE_ANTENA_MENU_REQUIRED = FALSE; 
2436:  BCF    4F.5
.................... //#endif 
....................                             } 
....................                         } 
2438:  BRA    245A
....................                     else 
....................                         { 
....................                         equaliser_submenu=equaliser_submenu+1; 
243A:  MOVLW  01
243C:  ADDWF  50,F
....................                         //if (equaliser_submenu>MENU_MODULE_equaliser_menu_list_len) 
....................                         if (equaliser_submenu>MENU_MODULE_equaliser_menu_list_len|| (equaliser_submenu==MENU_MODULE_EQUALISER_MENU_Backlight&&MENU_MODULE_equaliser_menu_list[MENU_MODULE_EQUALISER_MENU_Backlight]==MENU_MODULE_EQUALISER_MENU_ERROR)) // czy equaliser submenu jest wiêksze od listy urz¹dzeñ lub nie ma zarz¹dzania podœwietleniem 
243E:  BTFSC  50.7
2440:  BRA    245A
2442:  MOVF   50,W
2444:  SUBLW  07
2446:  BC    245A
2448:  BRA    244E
244A:  BTFSS  00.0
244C:  BRA    245A
....................                             { 
.................... //#ifdef _USE_ACTIVE_ANTENA_ 
....................                             if (is_ACTIVE_ANTENA_MENU_REQUIRED == TRUE) 
244E:  BTFSS  4F.5
2450:  BRA    2456
....................                                 { 
....................                                 equaliser_submenu=0; 
2452:  CLRF   50
....................                                 } 
2454:  BRA    245A
....................                             else 
.................... //#endif 
....................                                 { 
....................                                     equaliser_submenu=1; 
2456:  MOVLW  01
2458:  MOVWF  50
....................                                 } 
....................  
....................                                 } 
....................                         } 
....................                     _1st_EQUALISER_loop_execution = FALSE; 
245A:  BCF    4F.4
....................                     dbg_printf("EQ submenu %u", equaliser_submenu); 
245C:  MOVLW  0C
245E:  MOVWF  FF6
2460:  MOVLW  07
2462:  MOVWF  FF7
2464:  MOVLW  0B
2466:  MOVWF  x81
2468:  CALL   089E
246C:  MOVFF  50,66
2470:  MOVLW  1B
2472:  MOVWF  67
2474:  CALL   10A8
2478:  CALL   07EC
....................                     //dbg_return_carriage(); 
....................  
....................                    MENU_MODULE_submenu_set_LED(equaliser_submenu); 
247C:  MOVFF  50,62
2480:  GOTO   1786
....................  
....................                     MENU_MODULE_reset_loop_conditions_TIMER_BUTTON_KEYBOARD(); 
2484:  CALL   1036
....................                     } 
2488:  BRA    24EA
....................                 else if (button_value_pattern==encoder2_right_pattern || button_value_pattern==button4_pattern) 
248A:  MOVF   1A,W
248C:  SUBLW  04
248E:  BZ    2496
2490:  MOVF   1A,W
2492:  SUBLW  80
2494:  BNZ   24B4
....................                     { 
....................  
....................                     MENU_MODULE_submenu_action(MENU_MODULE_equaliser_menu_list[equaliser_submenu], MENU_MODULE_EQUALISER_direct_UP, audio_devices_playing_submenu); //EQUALISER ACTION UP 
2496:  CLRF   03
2498:  MOVF   50,W
249A:  CALL   00BA
249E:  MOVWF  62
24A0:  MOVWF  63
24A2:  MOVLW  01
24A4:  MOVWF  64
24A6:  MOVFF  52,65
24AA:  CALL   187C
....................                     //MENU_MODULE_submenu_action_UP(MENU_MODULE_equaliser_menu_list[equaliser_submenu]); //EQUALISER ACTION UP 
....................  
....................                     MENU_MODULE_reset_loop_conditions_TIMER_BUTTON_KEYBOARD(); 
24AE:  CALL   1036
....................                     } 
24B2:  BRA    24EA
....................                 else if (button_value_pattern==encoder2_left_pattern || button_value_pattern==button3_pattern) 
24B4:  MOVF   1A,W
24B6:  SUBLW  08
24B8:  BZ    24C0
24BA:  MOVF   1A,W
24BC:  SUBLW  40
24BE:  BNZ   24DC
....................                     { 
....................  
....................                     MENU_MODULE_submenu_action(MENU_MODULE_equaliser_menu_list[equaliser_submenu], MENU_MODULE_EQUALISER_direct_DOWN, audio_devices_playing_submenu); //EQUALISER ACTION DOWN 
24C0:  CLRF   03
24C2:  MOVF   50,W
24C4:  CALL   00BA
24C8:  MOVWF  62
24CA:  MOVWF  63
24CC:  CLRF   64
24CE:  MOVFF  52,65
24D2:  CALL   187C
....................                     //MENU_MODULE_submenu_action_DOWN(MENU_MODULE_equaliser_menu_list[equaliser_submenu]); //EQUALISER ACTION DOWN 
....................  
....................                     MENU_MODULE_reset_loop_conditions_TIMER_BUTTON_KEYBOARD(); 
24D6:  CALL   1036
....................                     } 
24DA:  BRA    24EA
....................                 else if (button_value_pattern==0) 
24DC:  MOVF   1A,F
24DE:  BNZ   24E6
....................                     //No key presses WAIT untill timeout 
....................                     { 
....................                     //timer_overflow_counter =0; 
....................                     /*set_button_loop_breakout(); 
....................                     clear_keyboard_value();          //Jeï¿½li po klawiszu nieczytanym ma wyjï¿½ï¿½ i zrobiï¿½ akcjï¿½ to zahaszhowaï¿½*/ 
....................                     MENU_MODULE_reset_loop_conditions_BUTTON_KEYBOARD(); 
24E0:  CALL   1048
....................                     //dbg_printf("EQ blank "); 
....................                     //dbg_printf(""); 
....................                     } 
24E4:  BRA    24EA
....................                 else 
....................                     //Any other key presses end AUDIO INPUT loop 
....................                     { 
....................                     /*timer_overflow_counter =0;       //key pressed so it should count from 0 
....................                     reset_button_loop_breakout();    //not supported key pressed so button_loop_breakout = 0 to exit loop*/ 
....................                     MENU_MODULE_reset_loop_conditions_TIMER_BUTTON(); 
24E6:  CALL   105E
....................                     } 
....................                 is_EQUALISERT_loop_timeout = check_timeout(); 
24EA:  CALL   106C
24EE:  BCF    4F.3
24F0:  BTFSC  01.0
24F2:  BSF    4F.3
....................                 } 
....................             while(button_loop_breakout&&!is_EQUALISERT_loop_timeout); 
24F4:  BTFSS  1B.0
24F6:  BRA    24FC
24F8:  BTFSS  4F.3
24FA:  BRA    23D0
....................             clear_timer();    //MUSI BYï¿½ poniewaï¿½ z pï¿½tli moï¿½na wyjï¿½c w przypadku timeoutu i naciï¿½niï¿½cia innego klawisza niï¿½ obsï¿½ugiwany 
24FC:  CALL   107E
....................              
....................              
....................              
....................             dbg_printf("SAVE EQUALISER:"); 
2500:  MOVLW  1A
2502:  MOVWF  FF6
2504:  MOVLW  07
2506:  MOVWF  FF7
2508:  CALL   07CC
250C:  CALL   07EC
....................             //dbg_return_carriage(); 
....................              
....................             if (EQU_Backlight_val_temp!=EQU_Backlight_value) 
2510:  MOVF   42,W
2512:  SUBWF  5F,W
2514:  BZ    253C
....................             { 
....................                dbg_printf("SAVE BCK_light"); 
2516:  MOVLW  2A
2518:  MOVWF  FF6
251A:  MOVLW  07
251C:  MOVWF  FF7
251E:  CALL   07CC
2522:  CALL   07EC
....................                //dbg_return_carriage(); 
....................                EEPROM_MODULE_WRITE_hmi_backlight(); 
2526:  CLRF   66
2528:  MOVLW  0E
252A:  MOVWF  65
252C:  CLRF   68
252E:  MOVLW  42
2530:  MOVWF  67
2532:  CLRF   6A
2534:  MOVLW  01
2536:  MOVWF  69
2538:  CALL   0D36
....................             } 
....................             if (EQU_use_active_antena_val_temp!=EQU_use_active_antena_val) 
253C:  MOVF   41,W
253E:  SUBWF  60,W
2540:  BZ    2568
....................             { 
....................                dbg_printf("SAVE AAntena "); 
2542:  MOVLW  3A
2544:  MOVWF  FF6
2546:  MOVLW  07
2548:  MOVWF  FF7
254A:  CALL   07CC
254E:  CALL   07EC
....................                //dbg_return_carriage(); 
....................                EEPROM_MODULE_WRITE_active_antena(); 
2552:  CLRF   66
2554:  MOVLW  02
2556:  MOVWF  65
2558:  CLRF   68
255A:  MOVLW  41
255C:  MOVWF  67
255E:  CLRF   6A
2560:  MOVLW  01
2562:  MOVWF  69
2564:  CALL   0D36
....................             } 
....................              
....................             //What to save 
....................             //EQUALISER_MENU_Treble           1 
....................             //EQUALISER_MENU_Middle           2 
....................             //EQUALISER_MENU_Bass             3 
....................             //EQUALISER_MENU_Low_HighBoost    4 
....................             //EQUALISER_MENU_Left_Right       5 
....................             //EQUALISER_MENU_Front_Rear       6 
....................             //enable_interrupts(GLOBAL); 
....................             //delay_ms(500); 
....................             //#endif 
....................             back_to_menu = MENU_MODULE_PLAY_menu; 
2568:  MOVLW  02
256A:  MOVWF  4E
....................  
....................  
....................             } 
256C:  BRA    25A2
.................... //-----------------------------------------------------------------// 
.................... //----------------- EQUALISER BUTTON HANDLING END----------------- // 
.................... //---------------------------------------------------------+--------// 
....................  
....................  
....................  
....................  
.................... //---------------------------------------------------------------------// 
.................... //-------------UNSUPPORTED BUTTONS WHILE MAIN LOOP-------------------- // 
.................... //---------------------------------------------------------------------// 
....................         else if (button_value_pattern) 
256E:  MOVF   1A,F
2570:  BZ    25A2
....................             { 
....................             int8 last_main_menu = main_menu; 
2572:  MOVFF  4D,61
....................             main_menu = MENU_MODULE_UNSUPPORTED_menu; 
2576:  MOVLW  04
2578:  MOVWF  4D
....................             dbg_printf("Unsupported button patern: %x", button_value_pattern); 
257A:  MOVLW  48
257C:  MOVWF  FF6
257E:  MOVLW  07
2580:  MOVWF  FF7
2582:  MOVLW  1B
2584:  MOVWF  x81
2586:  CALL   089E
258A:  MOVFF  1A,81
258E:  MOVLW  57
2590:  MOVWF  x82
2592:  CALL   08BC
2596:  CALL   07EC
....................             //dbg_return_carriage(); 
....................             clear_keyboard_value(); 
259A:  CALL   102A
....................             back_to_menu =last_main_menu; 
259E:  MOVFF  61,4E
....................             } 
25A2:  BRA    213E
.................... //---------------------------------------------------------------------// 
.................... //-------------UNSUPPORTED BUTTONS WHILE MAIN LOOP END_--------------- // 
.................... //---------------------------------------------------------------------// 
....................         } 
.................... //-----------------------------------------------------------// 
.................... //------------------ RADIO MENU LOOP END ------------------- // 
.................... //-----------------------------------------------------------//         
....................          
....................     } 
25A4:  SLEEP 

Configuration Fuses:
   Word  1: C200   HS FCMEN IESO
   Word  2: 1E1A   PUT BROWNOUT_SW BORV21 NOWDT WDT32768
   Word  3: 0700   CCP2C1 PBADEN LPT1OSC NOMCLR
   Word  4: 0081   STVREN NOLVP NOXINST NODEBUG
   Word  5: 8000   PROTECT CPB NOCPD
   Word  6: E00F   NOWRT NOWRTC NOWRTB NOWRTD
   Word  7: 400F   NOEBTR NOEBTRB
